
ctarget：     文件格式 elf64-x86-64


Disassembly of section .init:

0000000000400c68 <_init>:
  400c68:	48 83 ec 08          	sub    $0x8,%rsp
  400c6c:	48 8b 05 85 43 20 00 	mov    0x204385(%rip),%rax        # 604ff8 <__gmon_start__>
  400c73:	48 85 c0             	test   %rax,%rax
  400c76:	74 05                	je     400c7d <_init+0x15>
  400c78:	e8 43 02 00 00       	callq  400ec0 <__gmon_start__@plt>
  400c7d:	48 83 c4 08          	add    $0x8,%rsp
  400c81:	c3                   	retq   

Disassembly of section .plt:

0000000000400c90 <.plt>:
  400c90:	ff 35 72 43 20 00    	pushq  0x204372(%rip)        # 605008 <_GLOBAL_OFFSET_TABLE_+0x8>
  400c96:	ff 25 74 43 20 00    	jmpq   *0x204374(%rip)        # 605010 <_GLOBAL_OFFSET_TABLE_+0x10>
  400c9c:	0f 1f 40 00          	nopl   0x0(%rax)

0000000000400ca0 <strcasecmp@plt>:
  400ca0:	ff 25 72 43 20 00    	jmpq   *0x204372(%rip)        # 605018 <strcasecmp@GLIBC_2.2.5>
  400ca6:	68 00 00 00 00       	pushq  $0x0
  400cab:	e9 e0 ff ff ff       	jmpq   400c90 <.plt>

0000000000400cb0 <__errno_location@plt>:
  400cb0:	ff 25 6a 43 20 00    	jmpq   *0x20436a(%rip)        # 605020 <__errno_location@GLIBC_2.2.5>
  400cb6:	68 01 00 00 00       	pushq  $0x1
  400cbb:	e9 d0 ff ff ff       	jmpq   400c90 <.plt>

0000000000400cc0 <srandom@plt>:
  400cc0:	ff 25 62 43 20 00    	jmpq   *0x204362(%rip)        # 605028 <srandom@GLIBC_2.2.5>
  400cc6:	68 02 00 00 00       	pushq  $0x2
  400ccb:	e9 c0 ff ff ff       	jmpq   400c90 <.plt>

0000000000400cd0 <strncmp@plt>:
  400cd0:	ff 25 5a 43 20 00    	jmpq   *0x20435a(%rip)        # 605030 <strncmp@GLIBC_2.2.5>
  400cd6:	68 03 00 00 00       	pushq  $0x3
  400cdb:	e9 b0 ff ff ff       	jmpq   400c90 <.plt>

0000000000400ce0 <strcpy@plt>:
  400ce0:	ff 25 52 43 20 00    	jmpq   *0x204352(%rip)        # 605038 <strcpy@GLIBC_2.2.5>
  400ce6:	68 04 00 00 00       	pushq  $0x4
  400ceb:	e9 a0 ff ff ff       	jmpq   400c90 <.plt>

0000000000400cf0 <puts@plt>:
  400cf0:	ff 25 4a 43 20 00    	jmpq   *0x20434a(%rip)        # 605040 <puts@GLIBC_2.2.5>
  400cf6:	68 05 00 00 00       	pushq  $0x5
  400cfb:	e9 90 ff ff ff       	jmpq   400c90 <.plt>

0000000000400d00 <write@plt>:
  400d00:	ff 25 42 43 20 00    	jmpq   *0x204342(%rip)        # 605048 <write@GLIBC_2.2.5>
  400d06:	68 06 00 00 00       	pushq  $0x6
  400d0b:	e9 80 ff ff ff       	jmpq   400c90 <.plt>

0000000000400d10 <__stack_chk_fail@plt>:
  400d10:	ff 25 3a 43 20 00    	jmpq   *0x20433a(%rip)        # 605050 <__stack_chk_fail@GLIBC_2.4>
  400d16:	68 07 00 00 00       	pushq  $0x7
  400d1b:	e9 70 ff ff ff       	jmpq   400c90 <.plt>

0000000000400d20 <mmap@plt>:
  400d20:	ff 25 32 43 20 00    	jmpq   *0x204332(%rip)        # 605058 <mmap@GLIBC_2.2.5>
  400d26:	68 08 00 00 00       	pushq  $0x8
  400d2b:	e9 60 ff ff ff       	jmpq   400c90 <.plt>

0000000000400d30 <memset@plt>:
  400d30:	ff 25 2a 43 20 00    	jmpq   *0x20432a(%rip)        # 605060 <memset@GLIBC_2.2.5>
  400d36:	68 09 00 00 00       	pushq  $0x9
  400d3b:	e9 50 ff ff ff       	jmpq   400c90 <.plt>

0000000000400d40 <alarm@plt>:
  400d40:	ff 25 22 43 20 00    	jmpq   *0x204322(%rip)        # 605068 <alarm@GLIBC_2.2.5>
  400d46:	68 0a 00 00 00       	pushq  $0xa
  400d4b:	e9 40 ff ff ff       	jmpq   400c90 <.plt>

0000000000400d50 <close@plt>:
  400d50:	ff 25 1a 43 20 00    	jmpq   *0x20431a(%rip)        # 605070 <close@GLIBC_2.2.5>
  400d56:	68 0b 00 00 00       	pushq  $0xb
  400d5b:	e9 30 ff ff ff       	jmpq   400c90 <.plt>

0000000000400d60 <read@plt>:
  400d60:	ff 25 12 43 20 00    	jmpq   *0x204312(%rip)        # 605078 <read@GLIBC_2.2.5>
  400d66:	68 0c 00 00 00       	pushq  $0xc
  400d6b:	e9 20 ff ff ff       	jmpq   400c90 <.plt>

0000000000400d70 <__libc_start_main@plt>:
  400d70:	ff 25 0a 43 20 00    	jmpq   *0x20430a(%rip)        # 605080 <__libc_start_main@GLIBC_2.2.5>
  400d76:	68 0d 00 00 00       	pushq  $0xd
  400d7b:	e9 10 ff ff ff       	jmpq   400c90 <.plt>

0000000000400d80 <signal@plt>:
  400d80:	ff 25 02 43 20 00    	jmpq   *0x204302(%rip)        # 605088 <signal@GLIBC_2.2.5>
  400d86:	68 0e 00 00 00       	pushq  $0xe
  400d8b:	e9 00 ff ff ff       	jmpq   400c90 <.plt>

0000000000400d90 <gethostbyname@plt>:
  400d90:	ff 25 fa 42 20 00    	jmpq   *0x2042fa(%rip)        # 605090 <gethostbyname@GLIBC_2.2.5>
  400d96:	68 0f 00 00 00       	pushq  $0xf
  400d9b:	e9 f0 fe ff ff       	jmpq   400c90 <.plt>

0000000000400da0 <__memmove_chk@plt>:
  400da0:	ff 25 f2 42 20 00    	jmpq   *0x2042f2(%rip)        # 605098 <__memmove_chk@GLIBC_2.3.4>
  400da6:	68 10 00 00 00       	pushq  $0x10
  400dab:	e9 e0 fe ff ff       	jmpq   400c90 <.plt>

0000000000400db0 <strtol@plt>:
  400db0:	ff 25 ea 42 20 00    	jmpq   *0x2042ea(%rip)        # 6050a0 <strtol@GLIBC_2.2.5>
  400db6:	68 11 00 00 00       	pushq  $0x11
  400dbb:	e9 d0 fe ff ff       	jmpq   400c90 <.plt>

0000000000400dc0 <memcpy@plt>:
  400dc0:	ff 25 e2 42 20 00    	jmpq   *0x2042e2(%rip)        # 6050a8 <memcpy@GLIBC_2.14>
  400dc6:	68 12 00 00 00       	pushq  $0x12
  400dcb:	e9 c0 fe ff ff       	jmpq   400c90 <.plt>

0000000000400dd0 <time@plt>:
  400dd0:	ff 25 da 42 20 00    	jmpq   *0x2042da(%rip)        # 6050b0 <time@GLIBC_2.2.5>
  400dd6:	68 13 00 00 00       	pushq  $0x13
  400ddb:	e9 b0 fe ff ff       	jmpq   400c90 <.plt>

0000000000400de0 <random@plt>:
  400de0:	ff 25 d2 42 20 00    	jmpq   *0x2042d2(%rip)        # 6050b8 <random@GLIBC_2.2.5>
  400de6:	68 14 00 00 00       	pushq  $0x14
  400deb:	e9 a0 fe ff ff       	jmpq   400c90 <.plt>

0000000000400df0 <_IO_getc@plt>:
  400df0:	ff 25 ca 42 20 00    	jmpq   *0x2042ca(%rip)        # 6050c0 <_IO_getc@GLIBC_2.2.5>
  400df6:	68 15 00 00 00       	pushq  $0x15
  400dfb:	e9 90 fe ff ff       	jmpq   400c90 <.plt>

0000000000400e00 <__isoc99_sscanf@plt>:
  400e00:	ff 25 c2 42 20 00    	jmpq   *0x2042c2(%rip)        # 6050c8 <__isoc99_sscanf@GLIBC_2.7>
  400e06:	68 16 00 00 00       	pushq  $0x16
  400e0b:	e9 80 fe ff ff       	jmpq   400c90 <.plt>

0000000000400e10 <munmap@plt>:
  400e10:	ff 25 ba 42 20 00    	jmpq   *0x2042ba(%rip)        # 6050d0 <munmap@GLIBC_2.2.5>
  400e16:	68 17 00 00 00       	pushq  $0x17
  400e1b:	e9 70 fe ff ff       	jmpq   400c90 <.plt>

0000000000400e20 <__printf_chk@plt>:
  400e20:	ff 25 b2 42 20 00    	jmpq   *0x2042b2(%rip)        # 6050d8 <__printf_chk@GLIBC_2.3.4>
  400e26:	68 18 00 00 00       	pushq  $0x18
  400e2b:	e9 60 fe ff ff       	jmpq   400c90 <.plt>

0000000000400e30 <fopen@plt>:
  400e30:	ff 25 aa 42 20 00    	jmpq   *0x2042aa(%rip)        # 6050e0 <fopen@GLIBC_2.2.5>
  400e36:	68 19 00 00 00       	pushq  $0x19
  400e3b:	e9 50 fe ff ff       	jmpq   400c90 <.plt>

0000000000400e40 <getopt@plt>:
  400e40:	ff 25 a2 42 20 00    	jmpq   *0x2042a2(%rip)        # 6050e8 <getopt@GLIBC_2.2.5>
  400e46:	68 1a 00 00 00       	pushq  $0x1a
  400e4b:	e9 40 fe ff ff       	jmpq   400c90 <.plt>

0000000000400e50 <strtoul@plt>:
  400e50:	ff 25 9a 42 20 00    	jmpq   *0x20429a(%rip)        # 6050f0 <strtoul@GLIBC_2.2.5>
  400e56:	68 1b 00 00 00       	pushq  $0x1b
  400e5b:	e9 30 fe ff ff       	jmpq   400c90 <.plt>

0000000000400e60 <gethostname@plt>:
  400e60:	ff 25 92 42 20 00    	jmpq   *0x204292(%rip)        # 6050f8 <gethostname@GLIBC_2.2.5>
  400e66:	68 1c 00 00 00       	pushq  $0x1c
  400e6b:	e9 20 fe ff ff       	jmpq   400c90 <.plt>

0000000000400e70 <exit@plt>:
  400e70:	ff 25 8a 42 20 00    	jmpq   *0x20428a(%rip)        # 605100 <exit@GLIBC_2.2.5>
  400e76:	68 1d 00 00 00       	pushq  $0x1d
  400e7b:	e9 10 fe ff ff       	jmpq   400c90 <.plt>

0000000000400e80 <connect@plt>:
  400e80:	ff 25 82 42 20 00    	jmpq   *0x204282(%rip)        # 605108 <connect@GLIBC_2.2.5>
  400e86:	68 1e 00 00 00       	pushq  $0x1e
  400e8b:	e9 00 fe ff ff       	jmpq   400c90 <.plt>

0000000000400e90 <__fprintf_chk@plt>:
  400e90:	ff 25 7a 42 20 00    	jmpq   *0x20427a(%rip)        # 605110 <__fprintf_chk@GLIBC_2.3.4>
  400e96:	68 1f 00 00 00       	pushq  $0x1f
  400e9b:	e9 f0 fd ff ff       	jmpq   400c90 <.plt>

0000000000400ea0 <__sprintf_chk@plt>:
  400ea0:	ff 25 72 42 20 00    	jmpq   *0x204272(%rip)        # 605118 <__sprintf_chk@GLIBC_2.3.4>
  400ea6:	68 20 00 00 00       	pushq  $0x20
  400eab:	e9 e0 fd ff ff       	jmpq   400c90 <.plt>

0000000000400eb0 <socket@plt>:
  400eb0:	ff 25 6a 42 20 00    	jmpq   *0x20426a(%rip)        # 605120 <socket@GLIBC_2.2.5>
  400eb6:	68 21 00 00 00       	pushq  $0x21
  400ebb:	e9 d0 fd ff ff       	jmpq   400c90 <.plt>

Disassembly of section .plt.got:

0000000000400ec0 <__gmon_start__@plt>:
  400ec0:	ff 25 32 41 20 00    	jmpq   *0x204132(%rip)        # 604ff8 <__gmon_start__>
  400ec6:	66 90                	xchg   %ax,%ax

Disassembly of section .text:

0000000000400ed0 <_start>:
  400ed0:	31 ed                	xor    %ebp,%ebp
  400ed2:	49 89 d1             	mov    %rdx,%r9
  400ed5:	5e                   	pop    %rsi
  400ed6:	48 89 e2             	mov    %rsp,%rdx
  400ed9:	48 83 e4 f0          	and    $0xfffffffffffffff0,%rsp
  400edd:	50                   	push   %rax
  400ede:	54                   	push   %rsp
  400edf:	49 c7 c0 80 2f 40 00 	mov    $0x402f80,%r8
  400ee6:	48 c7 c1 10 2f 40 00 	mov    $0x402f10,%rcx
  400eed:	48 c7 c7 d5 11 40 00 	mov    $0x4011d5,%rdi
  400ef4:	e8 77 fe ff ff       	callq  400d70 <__libc_start_main@plt>
  400ef9:	f4                   	hlt    
  400efa:	66 0f 1f 44 00 00    	nopw   0x0(%rax,%rax,1)

0000000000400f00 <deregister_tm_clones>:
  400f00:	b8 b7 54 60 00       	mov    $0x6054b7,%eax
  400f05:	55                   	push   %rbp
  400f06:	48 2d b0 54 60 00    	sub    $0x6054b0,%rax
  400f0c:	48 83 f8 0e          	cmp    $0xe,%rax
  400f10:	48 89 e5             	mov    %rsp,%rbp
  400f13:	76 1b                	jbe    400f30 <deregister_tm_clones+0x30>
  400f15:	b8 00 00 00 00       	mov    $0x0,%eax
  400f1a:	48 85 c0             	test   %rax,%rax
  400f1d:	74 11                	je     400f30 <deregister_tm_clones+0x30>
  400f1f:	5d                   	pop    %rbp
  400f20:	bf b0 54 60 00       	mov    $0x6054b0,%edi
  400f25:	ff e0                	jmpq   *%rax
  400f27:	66 0f 1f 84 00 00 00 	nopw   0x0(%rax,%rax,1)
  400f2e:	00 00 
  400f30:	5d                   	pop    %rbp
  400f31:	c3                   	retq   
  400f32:	0f 1f 40 00          	nopl   0x0(%rax)
  400f36:	66 2e 0f 1f 84 00 00 	nopw   %cs:0x0(%rax,%rax,1)
  400f3d:	00 00 00 

0000000000400f40 <register_tm_clones>:
  400f40:	be b0 54 60 00       	mov    $0x6054b0,%esi
  400f45:	55                   	push   %rbp
  400f46:	48 81 ee b0 54 60 00 	sub    $0x6054b0,%rsi
  400f4d:	48 c1 fe 03          	sar    $0x3,%rsi
  400f51:	48 89 e5             	mov    %rsp,%rbp
  400f54:	48 89 f0             	mov    %rsi,%rax
  400f57:	48 c1 e8 3f          	shr    $0x3f,%rax
  400f5b:	48 01 c6             	add    %rax,%rsi
  400f5e:	48 d1 fe             	sar    %rsi
  400f61:	74 15                	je     400f78 <register_tm_clones+0x38>
  400f63:	b8 00 00 00 00       	mov    $0x0,%eax
  400f68:	48 85 c0             	test   %rax,%rax
  400f6b:	74 0b                	je     400f78 <register_tm_clones+0x38>
  400f6d:	5d                   	pop    %rbp
  400f6e:	bf b0 54 60 00       	mov    $0x6054b0,%edi
  400f73:	ff e0                	jmpq   *%rax
  400f75:	0f 1f 00             	nopl   (%rax)
  400f78:	5d                   	pop    %rbp
  400f79:	c3                   	retq   
  400f7a:	66 0f 1f 44 00 00    	nopw   0x0(%rax,%rax,1)

0000000000400f80 <__do_global_dtors_aux>:
  400f80:	80 3d 61 45 20 00 00 	cmpb   $0x0,0x204561(%rip)        # 6054e8 <completed.7594>
  400f87:	75 11                	jne    400f9a <__do_global_dtors_aux+0x1a>
  400f89:	55                   	push   %rbp
  400f8a:	48 89 e5             	mov    %rsp,%rbp
  400f8d:	e8 6e ff ff ff       	callq  400f00 <deregister_tm_clones>
  400f92:	5d                   	pop    %rbp
  400f93:	c6 05 4e 45 20 00 01 	movb   $0x1,0x20454e(%rip)        # 6054e8 <completed.7594>
  400f9a:	f3 c3                	repz retq 
  400f9c:	0f 1f 40 00          	nopl   0x0(%rax)

0000000000400fa0 <frame_dummy>:
  400fa0:	bf 10 4e 60 00       	mov    $0x604e10,%edi
  400fa5:	48 83 3f 00          	cmpq   $0x0,(%rdi)
  400fa9:	75 05                	jne    400fb0 <frame_dummy+0x10>
  400fab:	eb 93                	jmp    400f40 <register_tm_clones>
  400fad:	0f 1f 00             	nopl   (%rax)
  400fb0:	b8 00 00 00 00       	mov    $0x0,%eax
  400fb5:	48 85 c0             	test   %rax,%rax
  400fb8:	74 f1                	je     400fab <frame_dummy+0xb>
  400fba:	55                   	push   %rbp
  400fbb:	48 89 e5             	mov    %rsp,%rbp
  400fbe:	ff d0                	callq  *%rax
  400fc0:	5d                   	pop    %rbp
  400fc1:	e9 7a ff ff ff       	jmpq   400f40 <register_tm_clones>

0000000000400fc6 <usage>:
  400fc6:	48 83 ec 08          	sub    $0x8,%rsp
  400fca:	48 89 fa             	mov    %rdi,%rdx
  400fcd:	83 3d 54 45 20 00 00 	cmpl   $0x0,0x204554(%rip)        # 605528 <is_checker>
  400fd4:	74 3e                	je     401014 <usage+0x4e>
  400fd6:	be 98 2f 40 00       	mov    $0x402f98,%esi
  400fdb:	bf 01 00 00 00       	mov    $0x1,%edi
  400fe0:	b8 00 00 00 00       	mov    $0x0,%eax
  400fe5:	e8 36 fe ff ff       	callq  400e20 <__printf_chk@plt>
  400fea:	bf d0 2f 40 00       	mov    $0x402fd0,%edi
  400fef:	e8 fc fc ff ff       	callq  400cf0 <puts@plt>
  400ff4:	bf 48 31 40 00       	mov    $0x403148,%edi
  400ff9:	e8 f2 fc ff ff       	callq  400cf0 <puts@plt>
  400ffe:	bf f8 2f 40 00       	mov    $0x402ff8,%edi
  401003:	e8 e8 fc ff ff       	callq  400cf0 <puts@plt>
  401008:	bf 62 31 40 00       	mov    $0x403162,%edi
  40100d:	e8 de fc ff ff       	callq  400cf0 <puts@plt>
  401012:	eb 32                	jmp    401046 <usage+0x80>
  401014:	be 7e 31 40 00       	mov    $0x40317e,%esi
  401019:	bf 01 00 00 00       	mov    $0x1,%edi
  40101e:	b8 00 00 00 00       	mov    $0x0,%eax
  401023:	e8 f8 fd ff ff       	callq  400e20 <__printf_chk@plt>
  401028:	bf 20 30 40 00       	mov    $0x403020,%edi
  40102d:	e8 be fc ff ff       	callq  400cf0 <puts@plt>
  401032:	bf 48 30 40 00       	mov    $0x403048,%edi
  401037:	e8 b4 fc ff ff       	callq  400cf0 <puts@plt>
  40103c:	bf 9c 31 40 00       	mov    $0x40319c,%edi
  401041:	e8 aa fc ff ff       	callq  400cf0 <puts@plt>
  401046:	bf 00 00 00 00       	mov    $0x0,%edi
  40104b:	e8 20 fe ff ff       	callq  400e70 <exit@plt>

0000000000401050 <initialize_target>:
  401050:	55                   	push   %rbp
  401051:	53                   	push   %rbx
  401052:	48 81 ec 18 21 00 00 	sub    $0x2118,%rsp
  401059:	89 f5                	mov    %esi,%ebp
  40105b:	64 48 8b 04 25 28 00 	mov    %fs:0x28,%rax
  401062:	00 00 
  401064:	48 89 84 24 08 21 00 	mov    %rax,0x2108(%rsp)
  40106b:	00 
  40106c:	31 c0                	xor    %eax,%eax
  40106e:	89 3d a4 44 20 00    	mov    %edi,0x2044a4(%rip)        # 605518 <check_level>
  401074:	8b 3d ee 40 20 00    	mov    0x2040ee(%rip),%edi        # 605168 <target_id>
  40107a:	e8 6c 1e 00 00       	callq  402eeb <gencookie>
  40107f:	89 05 9f 44 20 00    	mov    %eax,0x20449f(%rip)        # 605524 <cookie>
  401085:	89 c7                	mov    %eax,%edi
  401087:	e8 5f 1e 00 00       	callq  402eeb <gencookie>
  40108c:	89 05 8e 44 20 00    	mov    %eax,0x20448e(%rip)        # 605520 <authkey>
  401092:	8b 05 d0 40 20 00    	mov    0x2040d0(%rip),%eax        # 605168 <target_id>
  401098:	8d 78 01             	lea    0x1(%rax),%edi
  40109b:	e8 20 fc ff ff       	callq  400cc0 <srandom@plt>
  4010a0:	e8 3b fd ff ff       	callq  400de0 <random@plt>
  4010a5:	89 c7                	mov    %eax,%edi
  4010a7:	e8 03 03 00 00       	callq  4013af <scramble>
  4010ac:	89 c3                	mov    %eax,%ebx
  4010ae:	85 ed                	test   %ebp,%ebp
  4010b0:	74 18                	je     4010ca <initialize_target+0x7a>
  4010b2:	bf 00 00 00 00       	mov    $0x0,%edi
  4010b7:	e8 14 fd ff ff       	callq  400dd0 <time@plt>
  4010bc:	89 c7                	mov    %eax,%edi
  4010be:	e8 fd fb ff ff       	callq  400cc0 <srandom@plt>
  4010c3:	e8 18 fd ff ff       	callq  400de0 <random@plt>
  4010c8:	eb 05                	jmp    4010cf <initialize_target+0x7f>
  4010ca:	b8 00 00 00 00       	mov    $0x0,%eax
  4010cf:	01 c3                	add    %eax,%ebx
  4010d1:	0f b7 db             	movzwl %bx,%ebx
  4010d4:	8d 04 dd 00 01 00 00 	lea    0x100(,%rbx,8),%eax
  4010db:	89 c0                	mov    %eax,%eax
  4010dd:	48 89 05 bc 43 20 00 	mov    %rax,0x2043bc(%rip)        # 6054a0 <buf_offset>
  4010e4:	c6 05 5d 50 20 00 63 	movb   $0x63,0x20505d(%rip)        # 606148 <target_prefix>
  4010eb:	83 3d b6 43 20 00 00 	cmpl   $0x0,0x2043b6(%rip)        # 6054a8 <notify>
  4010f2:	0f 84 bb 00 00 00    	je     4011b3 <initialize_target+0x163>
  4010f8:	83 3d 29 44 20 00 00 	cmpl   $0x0,0x204429(%rip)        # 605528 <is_checker>
  4010ff:	0f 85 ae 00 00 00    	jne    4011b3 <initialize_target+0x163>
  401105:	be 00 01 00 00       	mov    $0x100,%esi
  40110a:	48 89 e7             	mov    %rsp,%rdi
  40110d:	e8 4e fd ff ff       	callq  400e60 <gethostname@plt>
  401112:	85 c0                	test   %eax,%eax
  401114:	74 25                	je     40113b <initialize_target+0xeb>
  401116:	bf 78 30 40 00       	mov    $0x403078,%edi
  40111b:	e8 d0 fb ff ff       	callq  400cf0 <puts@plt>
  401120:	bf 08 00 00 00       	mov    $0x8,%edi
  401125:	e8 46 fd ff ff       	callq  400e70 <exit@plt>
  40112a:	48 89 e6             	mov    %rsp,%rsi
  40112d:	e8 6e fb ff ff       	callq  400ca0 <strcasecmp@plt>
  401132:	85 c0                	test   %eax,%eax
  401134:	74 21                	je     401157 <initialize_target+0x107>
  401136:	83 c3 01             	add    $0x1,%ebx
  401139:	eb 05                	jmp    401140 <initialize_target+0xf0>
  40113b:	bb 00 00 00 00       	mov    $0x0,%ebx
  401140:	48 63 c3             	movslq %ebx,%rax
  401143:	48 8b 3c c5 80 51 60 	mov    0x605180(,%rax,8),%rdi
  40114a:	00 
  40114b:	48 85 ff             	test   %rdi,%rdi
  40114e:	75 da                	jne    40112a <initialize_target+0xda>
  401150:	b8 00 00 00 00       	mov    $0x0,%eax
  401155:	eb 05                	jmp    40115c <initialize_target+0x10c>
  401157:	b8 01 00 00 00       	mov    $0x1,%eax
  40115c:	85 c0                	test   %eax,%eax
  40115e:	75 1c                	jne    40117c <initialize_target+0x12c>
  401160:	48 89 e2             	mov    %rsp,%rdx
  401163:	be b0 30 40 00       	mov    $0x4030b0,%esi
  401168:	bf 01 00 00 00       	mov    $0x1,%edi
  40116d:	e8 ae fc ff ff       	callq  400e20 <__printf_chk@plt>
  401172:	bf 08 00 00 00       	mov    $0x8,%edi
  401177:	e8 f4 fc ff ff       	callq  400e70 <exit@plt>
  40117c:	48 8d bc 24 00 01 00 	lea    0x100(%rsp),%rdi
  401183:	00 
  401184:	e8 cc 1a 00 00       	callq  402c55 <init_driver>
  401189:	85 c0                	test   %eax,%eax
  40118b:	79 26                	jns    4011b3 <initialize_target+0x163>
  40118d:	48 8d 94 24 00 01 00 	lea    0x100(%rsp),%rdx
  401194:	00 
  401195:	be f0 30 40 00       	mov    $0x4030f0,%esi
  40119a:	bf 01 00 00 00       	mov    $0x1,%edi
  40119f:	b8 00 00 00 00       	mov    $0x0,%eax
  4011a4:	e8 77 fc ff ff       	callq  400e20 <__printf_chk@plt>
  4011a9:	bf 08 00 00 00       	mov    $0x8,%edi
  4011ae:	e8 bd fc ff ff       	callq  400e70 <exit@plt>
  4011b3:	48 8b 84 24 08 21 00 	mov    0x2108(%rsp),%rax
  4011ba:	00 
  4011bb:	64 48 33 04 25 28 00 	xor    %fs:0x28,%rax
  4011c2:	00 00 
  4011c4:	74 05                	je     4011cb <initialize_target+0x17b>
  4011c6:	e8 45 fb ff ff       	callq  400d10 <__stack_chk_fail@plt>
  4011cb:	48 81 c4 18 21 00 00 	add    $0x2118,%rsp
  4011d2:	5b                   	pop    %rbx
  4011d3:	5d                   	pop    %rbp
  4011d4:	c3                   	retq   

00000000004011d5 <main>:
  4011d5:	41 56                	push   %r14
  4011d7:	41 55                	push   %r13
  4011d9:	41 54                	push   %r12
  4011db:	55                   	push   %rbp
  4011dc:	53                   	push   %rbx
  4011dd:	41 89 fc             	mov    %edi,%r12d
  4011e0:	48 89 f3             	mov    %rsi,%rbx
  4011e3:	be 75 1f 40 00       	mov    $0x401f75,%esi
  4011e8:	bf 0b 00 00 00       	mov    $0xb,%edi
  4011ed:	e8 8e fb ff ff       	callq  400d80 <signal@plt>
  4011f2:	be 27 1f 40 00       	mov    $0x401f27,%esi
  4011f7:	bf 07 00 00 00       	mov    $0x7,%edi
  4011fc:	e8 7f fb ff ff       	callq  400d80 <signal@plt>
  401201:	be c3 1f 40 00       	mov    $0x401fc3,%esi
  401206:	bf 04 00 00 00       	mov    $0x4,%edi
  40120b:	e8 70 fb ff ff       	callq  400d80 <signal@plt>
  401210:	83 3d 11 43 20 00 00 	cmpl   $0x0,0x204311(%rip)        # 605528 <is_checker>
  401217:	74 20                	je     401239 <main+0x64>
  401219:	be 11 20 40 00       	mov    $0x402011,%esi
  40121e:	bf 0e 00 00 00       	mov    $0xe,%edi
  401223:	e8 58 fb ff ff       	callq  400d80 <signal@plt>
  401228:	bf 05 00 00 00       	mov    $0x5,%edi
  40122d:	e8 0e fb ff ff       	callq  400d40 <alarm@plt>
  401232:	bd ba 31 40 00       	mov    $0x4031ba,%ebp
  401237:	eb 05                	jmp    40123e <main+0x69>
  401239:	bd b5 31 40 00       	mov    $0x4031b5,%ebp
  40123e:	48 8b 05 7b 42 20 00 	mov    0x20427b(%rip),%rax        # 6054c0 <stdin@@GLIBC_2.2.5>
  401245:	48 89 05 c4 42 20 00 	mov    %rax,0x2042c4(%rip)        # 605510 <infile>
  40124c:	41 bd 00 00 00 00    	mov    $0x0,%r13d
  401252:	41 be 00 00 00 00    	mov    $0x0,%r14d
  401258:	e9 c6 00 00 00       	jmpq   401323 <main+0x14e>
  40125d:	83 e8 61             	sub    $0x61,%eax
  401260:	3c 10                	cmp    $0x10,%al
  401262:	0f 87 9c 00 00 00    	ja     401304 <main+0x12f>
  401268:	0f b6 c0             	movzbl %al,%eax
  40126b:	ff 24 c5 00 32 40 00 	jmpq   *0x403200(,%rax,8)
  401272:	48 8b 3b             	mov    (%rbx),%rdi
  401275:	e8 4c fd ff ff       	callq  400fc6 <usage>
  40127a:	be 0d 35 40 00       	mov    $0x40350d,%esi
  40127f:	48 8b 3d 42 42 20 00 	mov    0x204242(%rip),%rdi        # 6054c8 <optarg@@GLIBC_2.2.5>
  401286:	e8 a5 fb ff ff       	callq  400e30 <fopen@plt>
  40128b:	48 89 05 7e 42 20 00 	mov    %rax,0x20427e(%rip)        # 605510 <infile>
  401292:	48 85 c0             	test   %rax,%rax
  401295:	0f 85 88 00 00 00    	jne    401323 <main+0x14e>
  40129b:	48 8b 0d 26 42 20 00 	mov    0x204226(%rip),%rcx        # 6054c8 <optarg@@GLIBC_2.2.5>
  4012a2:	ba c2 31 40 00       	mov    $0x4031c2,%edx
  4012a7:	be 01 00 00 00       	mov    $0x1,%esi
  4012ac:	48 8b 3d 2d 42 20 00 	mov    0x20422d(%rip),%rdi        # 6054e0 <stderr@@GLIBC_2.2.5>
  4012b3:	e8 d8 fb ff ff       	callq  400e90 <__fprintf_chk@plt>
  4012b8:	b8 01 00 00 00       	mov    $0x1,%eax
  4012bd:	e9 e4 00 00 00       	jmpq   4013a6 <main+0x1d1>
  4012c2:	ba 10 00 00 00       	mov    $0x10,%edx
  4012c7:	be 00 00 00 00       	mov    $0x0,%esi
  4012cc:	48 8b 3d f5 41 20 00 	mov    0x2041f5(%rip),%rdi        # 6054c8 <optarg@@GLIBC_2.2.5>
  4012d3:	e8 78 fb ff ff       	callq  400e50 <strtoul@plt>
  4012d8:	41 89 c6             	mov    %eax,%r14d
  4012db:	eb 46                	jmp    401323 <main+0x14e>
  4012dd:	ba 0a 00 00 00       	mov    $0xa,%edx
  4012e2:	be 00 00 00 00       	mov    $0x0,%esi
  4012e7:	48 8b 3d da 41 20 00 	mov    0x2041da(%rip),%rdi        # 6054c8 <optarg@@GLIBC_2.2.5>
  4012ee:	e8 bd fa ff ff       	callq  400db0 <strtol@plt>
  4012f3:	41 89 c5             	mov    %eax,%r13d
  4012f6:	eb 2b                	jmp    401323 <main+0x14e>
  4012f8:	c7 05 a6 41 20 00 00 	movl   $0x0,0x2041a6(%rip)        # 6054a8 <notify>
  4012ff:	00 00 00 
  401302:	eb 1f                	jmp    401323 <main+0x14e>
  401304:	0f be d2             	movsbl %dl,%edx
  401307:	be df 31 40 00       	mov    $0x4031df,%esi
  40130c:	bf 01 00 00 00       	mov    $0x1,%edi
  401311:	b8 00 00 00 00       	mov    $0x0,%eax
  401316:	e8 05 fb ff ff       	callq  400e20 <__printf_chk@plt>
  40131b:	48 8b 3b             	mov    (%rbx),%rdi
  40131e:	e8 a3 fc ff ff       	callq  400fc6 <usage>
  401323:	48 89 ea             	mov    %rbp,%rdx
  401326:	48 89 de             	mov    %rbx,%rsi
  401329:	44 89 e7             	mov    %r12d,%edi
  40132c:	e8 0f fb ff ff       	callq  400e40 <getopt@plt>
  401331:	89 c2                	mov    %eax,%edx
  401333:	3c ff                	cmp    $0xff,%al
  401335:	0f 85 22 ff ff ff    	jne    40125d <main+0x88>
  40133b:	be 00 00 00 00       	mov    $0x0,%esi
  401340:	44 89 ef             	mov    %r13d,%edi
  401343:	e8 08 fd ff ff       	callq  401050 <initialize_target>
  401348:	83 3d d9 41 20 00 00 	cmpl   $0x0,0x2041d9(%rip)        # 605528 <is_checker>
  40134f:	74 2a                	je     40137b <main+0x1a6>
  401351:	44 3b 35 c8 41 20 00 	cmp    0x2041c8(%rip),%r14d        # 605520 <authkey>
  401358:	74 21                	je     40137b <main+0x1a6>
  40135a:	44 89 f2             	mov    %r14d,%edx
  40135d:	be 18 31 40 00       	mov    $0x403118,%esi
  401362:	bf 01 00 00 00       	mov    $0x1,%edi
  401367:	b8 00 00 00 00       	mov    $0x0,%eax
  40136c:	e8 af fa ff ff       	callq  400e20 <__printf_chk@plt>
  401371:	b8 00 00 00 00       	mov    $0x0,%eax
  401376:	e8 48 08 00 00       	callq  401bc3 <check_fail>
  40137b:	8b 15 a3 41 20 00    	mov    0x2041a3(%rip),%edx        # 605524 <cookie>
  401381:	be f2 31 40 00       	mov    $0x4031f2,%esi
  401386:	bf 01 00 00 00       	mov    $0x1,%edi
  40138b:	b8 00 00 00 00       	mov    $0x0,%eax
  401390:	e8 8b fa ff ff       	callq  400e20 <__printf_chk@plt>
  401395:	48 8b 3d 04 41 20 00 	mov    0x204104(%rip),%rdi        # 6054a0 <buf_offset>
  40139c:	e8 70 0d 00 00       	callq  402111 <stable_launch>
  4013a1:	b8 00 00 00 00       	mov    $0x0,%eax
  4013a6:	5b                   	pop    %rbx
  4013a7:	5d                   	pop    %rbp
  4013a8:	41 5c                	pop    %r12
  4013aa:	41 5d                	pop    %r13
  4013ac:	41 5e                	pop    %r14
  4013ae:	c3                   	retq   

00000000004013af <scramble>:
  4013af:	48 83 ec 38          	sub    $0x38,%rsp
  4013b3:	64 48 8b 04 25 28 00 	mov    %fs:0x28,%rax
  4013ba:	00 00 
  4013bc:	48 89 44 24 28       	mov    %rax,0x28(%rsp)
  4013c1:	31 c0                	xor    %eax,%eax
  4013c3:	eb 10                	jmp    4013d5 <scramble+0x26>
  4013c5:	69 d0 28 ad 00 00    	imul   $0xad28,%eax,%edx
  4013cb:	01 fa                	add    %edi,%edx
  4013cd:	89 c1                	mov    %eax,%ecx
  4013cf:	89 14 8c             	mov    %edx,(%rsp,%rcx,4)
  4013d2:	83 c0 01             	add    $0x1,%eax
  4013d5:	83 f8 09             	cmp    $0x9,%eax
  4013d8:	76 eb                	jbe    4013c5 <scramble+0x16>
  4013da:	8b 44 24 0c          	mov    0xc(%rsp),%eax
  4013de:	69 c0 9a f7 00 00    	imul   $0xf79a,%eax,%eax
  4013e4:	89 44 24 0c          	mov    %eax,0xc(%rsp)
  4013e8:	8b 44 24 24          	mov    0x24(%rsp),%eax
  4013ec:	69 c0 be e1 00 00    	imul   $0xe1be,%eax,%eax
  4013f2:	89 44 24 24          	mov    %eax,0x24(%rsp)
  4013f6:	8b 44 24 18          	mov    0x18(%rsp),%eax
  4013fa:	69 c0 08 d5 00 00    	imul   $0xd508,%eax,%eax
  401400:	89 44 24 18          	mov    %eax,0x18(%rsp)
  401404:	8b 44 24 08          	mov    0x8(%rsp),%eax
  401408:	69 c0 29 1c 00 00    	imul   $0x1c29,%eax,%eax
  40140e:	89 44 24 08          	mov    %eax,0x8(%rsp)
  401412:	8b 44 24 24          	mov    0x24(%rsp),%eax
  401416:	69 c0 33 be 00 00    	imul   $0xbe33,%eax,%eax
  40141c:	89 44 24 24          	mov    %eax,0x24(%rsp)
  401420:	8b 44 24 08          	mov    0x8(%rsp),%eax
  401424:	69 c0 17 c8 00 00    	imul   $0xc817,%eax,%eax
  40142a:	89 44 24 08          	mov    %eax,0x8(%rsp)
  40142e:	8b 44 24 1c          	mov    0x1c(%rsp),%eax
  401432:	69 c0 7f 92 00 00    	imul   $0x927f,%eax,%eax
  401438:	89 44 24 1c          	mov    %eax,0x1c(%rsp)
  40143c:	8b 44 24 0c          	mov    0xc(%rsp),%eax
  401440:	69 c0 9f 60 00 00    	imul   $0x609f,%eax,%eax
  401446:	89 44 24 0c          	mov    %eax,0xc(%rsp)
  40144a:	8b 44 24 20          	mov    0x20(%rsp),%eax
  40144e:	69 c0 65 72 00 00    	imul   $0x7265,%eax,%eax
  401454:	89 44 24 20          	mov    %eax,0x20(%rsp)
  401458:	8b 44 24 04          	mov    0x4(%rsp),%eax
  40145c:	69 c0 7e f9 00 00    	imul   $0xf97e,%eax,%eax
  401462:	89 44 24 04          	mov    %eax,0x4(%rsp)
  401466:	8b 44 24 18          	mov    0x18(%rsp),%eax
  40146a:	69 c0 ba a8 00 00    	imul   $0xa8ba,%eax,%eax
  401470:	89 44 24 18          	mov    %eax,0x18(%rsp)
  401474:	8b 44 24 24          	mov    0x24(%rsp),%eax
  401478:	69 c0 34 4d 00 00    	imul   $0x4d34,%eax,%eax
  40147e:	89 44 24 24          	mov    %eax,0x24(%rsp)
  401482:	8b 44 24 10          	mov    0x10(%rsp),%eax
  401486:	69 c0 22 2e 00 00    	imul   $0x2e22,%eax,%eax
  40148c:	89 44 24 10          	mov    %eax,0x10(%rsp)
  401490:	8b 44 24 10          	mov    0x10(%rsp),%eax
  401494:	69 c0 b2 60 00 00    	imul   $0x60b2,%eax,%eax
  40149a:	89 44 24 10          	mov    %eax,0x10(%rsp)
  40149e:	8b 44 24 04          	mov    0x4(%rsp),%eax
  4014a2:	69 c0 70 14 00 00    	imul   $0x1470,%eax,%eax
  4014a8:	89 44 24 04          	mov    %eax,0x4(%rsp)
  4014ac:	8b 44 24 08          	mov    0x8(%rsp),%eax
  4014b0:	69 c0 f8 ed 00 00    	imul   $0xedf8,%eax,%eax
  4014b6:	89 44 24 08          	mov    %eax,0x8(%rsp)
  4014ba:	8b 44 24 08          	mov    0x8(%rsp),%eax
  4014be:	69 c0 d6 71 00 00    	imul   $0x71d6,%eax,%eax
  4014c4:	89 44 24 08          	mov    %eax,0x8(%rsp)
  4014c8:	8b 44 24 0c          	mov    0xc(%rsp),%eax
  4014cc:	69 c0 02 5c 00 00    	imul   $0x5c02,%eax,%eax
  4014d2:	89 44 24 0c          	mov    %eax,0xc(%rsp)
  4014d6:	8b 44 24 1c          	mov    0x1c(%rsp),%eax
  4014da:	69 c0 9a c1 00 00    	imul   $0xc19a,%eax,%eax
  4014e0:	89 44 24 1c          	mov    %eax,0x1c(%rsp)
  4014e4:	8b 44 24 14          	mov    0x14(%rsp),%eax
  4014e8:	69 c0 ed 6f 00 00    	imul   $0x6fed,%eax,%eax
  4014ee:	89 44 24 14          	mov    %eax,0x14(%rsp)
  4014f2:	8b 44 24 20          	mov    0x20(%rsp),%eax
  4014f6:	69 c0 0f 92 00 00    	imul   $0x920f,%eax,%eax
  4014fc:	89 44 24 20          	mov    %eax,0x20(%rsp)
  401500:	8b 44 24 18          	mov    0x18(%rsp),%eax
  401504:	69 c0 a3 22 00 00    	imul   $0x22a3,%eax,%eax
  40150a:	89 44 24 18          	mov    %eax,0x18(%rsp)
  40150e:	8b 44 24 1c          	mov    0x1c(%rsp),%eax
  401512:	69 c0 e0 ba 00 00    	imul   $0xbae0,%eax,%eax
  401518:	89 44 24 1c          	mov    %eax,0x1c(%rsp)
  40151c:	8b 44 24 04          	mov    0x4(%rsp),%eax
  401520:	69 c0 77 ff 00 00    	imul   $0xff77,%eax,%eax
  401526:	89 44 24 04          	mov    %eax,0x4(%rsp)
  40152a:	8b 44 24 18          	mov    0x18(%rsp),%eax
  40152e:	69 c0 73 c7 00 00    	imul   $0xc773,%eax,%eax
  401534:	89 44 24 18          	mov    %eax,0x18(%rsp)
  401538:	8b 44 24 14          	mov    0x14(%rsp),%eax
  40153c:	69 c0 f4 80 00 00    	imul   $0x80f4,%eax,%eax
  401542:	89 44 24 14          	mov    %eax,0x14(%rsp)
  401546:	8b 44 24 10          	mov    0x10(%rsp),%eax
  40154a:	69 c0 f0 e4 00 00    	imul   $0xe4f0,%eax,%eax
  401550:	89 44 24 10          	mov    %eax,0x10(%rsp)
  401554:	8b 04 24             	mov    (%rsp),%eax
  401557:	69 c0 f2 c4 00 00    	imul   $0xc4f2,%eax,%eax
  40155d:	89 04 24             	mov    %eax,(%rsp)
  401560:	8b 44 24 20          	mov    0x20(%rsp),%eax
  401564:	69 c0 de 26 00 00    	imul   $0x26de,%eax,%eax
  40156a:	89 44 24 20          	mov    %eax,0x20(%rsp)
  40156e:	8b 44 24 1c          	mov    0x1c(%rsp),%eax
  401572:	69 c0 e2 53 00 00    	imul   $0x53e2,%eax,%eax
  401578:	89 44 24 1c          	mov    %eax,0x1c(%rsp)
  40157c:	8b 04 24             	mov    (%rsp),%eax
  40157f:	69 c0 29 83 00 00    	imul   $0x8329,%eax,%eax
  401585:	89 04 24             	mov    %eax,(%rsp)
  401588:	8b 44 24 20          	mov    0x20(%rsp),%eax
  40158c:	69 c0 59 47 00 00    	imul   $0x4759,%eax,%eax
  401592:	89 44 24 20          	mov    %eax,0x20(%rsp)
  401596:	8b 44 24 14          	mov    0x14(%rsp),%eax
  40159a:	69 c0 90 11 00 00    	imul   $0x1190,%eax,%eax
  4015a0:	89 44 24 14          	mov    %eax,0x14(%rsp)
  4015a4:	8b 04 24             	mov    (%rsp),%eax
  4015a7:	69 c0 df 3b 00 00    	imul   $0x3bdf,%eax,%eax
  4015ad:	89 04 24             	mov    %eax,(%rsp)
  4015b0:	8b 44 24 20          	mov    0x20(%rsp),%eax
  4015b4:	69 c0 87 1b 00 00    	imul   $0x1b87,%eax,%eax
  4015ba:	89 44 24 20          	mov    %eax,0x20(%rsp)
  4015be:	8b 44 24 08          	mov    0x8(%rsp),%eax
  4015c2:	69 c0 f8 52 00 00    	imul   $0x52f8,%eax,%eax
  4015c8:	89 44 24 08          	mov    %eax,0x8(%rsp)
  4015cc:	8b 44 24 14          	mov    0x14(%rsp),%eax
  4015d0:	69 c0 d1 e3 00 00    	imul   $0xe3d1,%eax,%eax
  4015d6:	89 44 24 14          	mov    %eax,0x14(%rsp)
  4015da:	8b 44 24 14          	mov    0x14(%rsp),%eax
  4015de:	69 c0 24 d2 00 00    	imul   $0xd224,%eax,%eax
  4015e4:	89 44 24 14          	mov    %eax,0x14(%rsp)
  4015e8:	8b 44 24 10          	mov    0x10(%rsp),%eax
  4015ec:	69 c0 de f8 00 00    	imul   $0xf8de,%eax,%eax
  4015f2:	89 44 24 10          	mov    %eax,0x10(%rsp)
  4015f6:	8b 44 24 24          	mov    0x24(%rsp),%eax
  4015fa:	69 c0 f6 cb 00 00    	imul   $0xcbf6,%eax,%eax
  401600:	89 44 24 24          	mov    %eax,0x24(%rsp)
  401604:	8b 44 24 08          	mov    0x8(%rsp),%eax
  401608:	69 c0 92 ca 00 00    	imul   $0xca92,%eax,%eax
  40160e:	89 44 24 08          	mov    %eax,0x8(%rsp)
  401612:	8b 44 24 08          	mov    0x8(%rsp),%eax
  401616:	69 c0 7e 30 00 00    	imul   $0x307e,%eax,%eax
  40161c:	89 44 24 08          	mov    %eax,0x8(%rsp)
  401620:	8b 44 24 0c          	mov    0xc(%rsp),%eax
  401624:	69 c0 12 1b 00 00    	imul   $0x1b12,%eax,%eax
  40162a:	89 44 24 0c          	mov    %eax,0xc(%rsp)
  40162e:	8b 44 24 04          	mov    0x4(%rsp),%eax
  401632:	69 c0 94 c2 00 00    	imul   $0xc294,%eax,%eax
  401638:	89 44 24 04          	mov    %eax,0x4(%rsp)
  40163c:	8b 44 24 24          	mov    0x24(%rsp),%eax
  401640:	69 c0 15 1b 00 00    	imul   $0x1b15,%eax,%eax
  401646:	89 44 24 24          	mov    %eax,0x24(%rsp)
  40164a:	8b 44 24 14          	mov    0x14(%rsp),%eax
  40164e:	69 c0 40 7d 00 00    	imul   $0x7d40,%eax,%eax
  401654:	89 44 24 14          	mov    %eax,0x14(%rsp)
  401658:	8b 44 24 24          	mov    0x24(%rsp),%eax
  40165c:	69 c0 51 58 00 00    	imul   $0x5851,%eax,%eax
  401662:	89 44 24 24          	mov    %eax,0x24(%rsp)
  401666:	8b 44 24 10          	mov    0x10(%rsp),%eax
  40166a:	69 c0 3f 93 00 00    	imul   $0x933f,%eax,%eax
  401670:	89 44 24 10          	mov    %eax,0x10(%rsp)
  401674:	8b 44 24 18          	mov    0x18(%rsp),%eax
  401678:	69 c0 f5 67 00 00    	imul   $0x67f5,%eax,%eax
  40167e:	89 44 24 18          	mov    %eax,0x18(%rsp)
  401682:	8b 44 24 08          	mov    0x8(%rsp),%eax
  401686:	69 c0 0c 3d 00 00    	imul   $0x3d0c,%eax,%eax
  40168c:	89 44 24 08          	mov    %eax,0x8(%rsp)
  401690:	8b 44 24 10          	mov    0x10(%rsp),%eax
  401694:	69 c0 ea 7a 00 00    	imul   $0x7aea,%eax,%eax
  40169a:	89 44 24 10          	mov    %eax,0x10(%rsp)
  40169e:	8b 44 24 14          	mov    0x14(%rsp),%eax
  4016a2:	69 c0 12 31 00 00    	imul   $0x3112,%eax,%eax
  4016a8:	89 44 24 14          	mov    %eax,0x14(%rsp)
  4016ac:	8b 44 24 10          	mov    0x10(%rsp),%eax
  4016b0:	69 c0 a0 05 00 00    	imul   $0x5a0,%eax,%eax
  4016b6:	89 44 24 10          	mov    %eax,0x10(%rsp)
  4016ba:	8b 44 24 18          	mov    0x18(%rsp),%eax
  4016be:	69 c0 6c fd 00 00    	imul   $0xfd6c,%eax,%eax
  4016c4:	89 44 24 18          	mov    %eax,0x18(%rsp)
  4016c8:	8b 04 24             	mov    (%rsp),%eax
  4016cb:	69 c0 d2 d4 00 00    	imul   $0xd4d2,%eax,%eax
  4016d1:	89 04 24             	mov    %eax,(%rsp)
  4016d4:	8b 04 24             	mov    (%rsp),%eax
  4016d7:	69 c0 d0 be 00 00    	imul   $0xbed0,%eax,%eax
  4016dd:	89 04 24             	mov    %eax,(%rsp)
  4016e0:	8b 44 24 08          	mov    0x8(%rsp),%eax
  4016e4:	69 c0 4c 16 00 00    	imul   $0x164c,%eax,%eax
  4016ea:	89 44 24 08          	mov    %eax,0x8(%rsp)
  4016ee:	8b 44 24 14          	mov    0x14(%rsp),%eax
  4016f2:	69 c0 e6 4e 00 00    	imul   $0x4ee6,%eax,%eax
  4016f8:	89 44 24 14          	mov    %eax,0x14(%rsp)
  4016fc:	8b 44 24 1c          	mov    0x1c(%rsp),%eax
  401700:	69 c0 bf e4 00 00    	imul   $0xe4bf,%eax,%eax
  401706:	89 44 24 1c          	mov    %eax,0x1c(%rsp)
  40170a:	8b 44 24 04          	mov    0x4(%rsp),%eax
  40170e:	69 c0 50 73 00 00    	imul   $0x7350,%eax,%eax
  401714:	89 44 24 04          	mov    %eax,0x4(%rsp)
  401718:	8b 44 24 10          	mov    0x10(%rsp),%eax
  40171c:	69 c0 f2 27 00 00    	imul   $0x27f2,%eax,%eax
  401722:	89 44 24 10          	mov    %eax,0x10(%rsp)
  401726:	8b 44 24 24          	mov    0x24(%rsp),%eax
  40172a:	69 c0 14 9e 00 00    	imul   $0x9e14,%eax,%eax
  401730:	89 44 24 24          	mov    %eax,0x24(%rsp)
  401734:	8b 44 24 04          	mov    0x4(%rsp),%eax
  401738:	69 c0 29 b5 00 00    	imul   $0xb529,%eax,%eax
  40173e:	89 44 24 04          	mov    %eax,0x4(%rsp)
  401742:	8b 44 24 08          	mov    0x8(%rsp),%eax
  401746:	69 c0 25 ea 00 00    	imul   $0xea25,%eax,%eax
  40174c:	89 44 24 08          	mov    %eax,0x8(%rsp)
  401750:	8b 04 24             	mov    (%rsp),%eax
  401753:	6b c0 71             	imul   $0x71,%eax,%eax
  401756:	89 04 24             	mov    %eax,(%rsp)
  401759:	8b 44 24 14          	mov    0x14(%rsp),%eax
  40175d:	69 c0 9a a0 00 00    	imul   $0xa09a,%eax,%eax
  401763:	89 44 24 14          	mov    %eax,0x14(%rsp)
  401767:	8b 04 24             	mov    (%rsp),%eax
  40176a:	69 c0 36 b7 00 00    	imul   $0xb736,%eax,%eax
  401770:	89 04 24             	mov    %eax,(%rsp)
  401773:	8b 44 24 20          	mov    0x20(%rsp),%eax
  401777:	69 c0 17 da 00 00    	imul   $0xda17,%eax,%eax
  40177d:	89 44 24 20          	mov    %eax,0x20(%rsp)
  401781:	8b 44 24 0c          	mov    0xc(%rsp),%eax
  401785:	69 c0 e3 d4 00 00    	imul   $0xd4e3,%eax,%eax
  40178b:	89 44 24 0c          	mov    %eax,0xc(%rsp)
  40178f:	8b 44 24 1c          	mov    0x1c(%rsp),%eax
  401793:	69 c0 55 bb 00 00    	imul   $0xbb55,%eax,%eax
  401799:	89 44 24 1c          	mov    %eax,0x1c(%rsp)
  40179d:	8b 44 24 0c          	mov    0xc(%rsp),%eax
  4017a1:	69 c0 e6 a0 00 00    	imul   $0xa0e6,%eax,%eax
  4017a7:	89 44 24 0c          	mov    %eax,0xc(%rsp)
  4017ab:	8b 44 24 08          	mov    0x8(%rsp),%eax
  4017af:	69 c0 1a 49 00 00    	imul   $0x491a,%eax,%eax
  4017b5:	89 44 24 08          	mov    %eax,0x8(%rsp)
  4017b9:	8b 04 24             	mov    (%rsp),%eax
  4017bc:	69 c0 73 69 00 00    	imul   $0x6973,%eax,%eax
  4017c2:	89 04 24             	mov    %eax,(%rsp)
  4017c5:	8b 44 24 14          	mov    0x14(%rsp),%eax
  4017c9:	69 c0 91 e8 00 00    	imul   $0xe891,%eax,%eax
  4017cf:	89 44 24 14          	mov    %eax,0x14(%rsp)
  4017d3:	8b 44 24 0c          	mov    0xc(%rsp),%eax
  4017d7:	69 c0 7b a9 00 00    	imul   $0xa97b,%eax,%eax
  4017dd:	89 44 24 0c          	mov    %eax,0xc(%rsp)
  4017e1:	8b 44 24 1c          	mov    0x1c(%rsp),%eax
  4017e5:	69 c0 08 4e 00 00    	imul   $0x4e08,%eax,%eax
  4017eb:	89 44 24 1c          	mov    %eax,0x1c(%rsp)
  4017ef:	8b 44 24 10          	mov    0x10(%rsp),%eax
  4017f3:	69 c0 71 4c 00 00    	imul   $0x4c71,%eax,%eax
  4017f9:	89 44 24 10          	mov    %eax,0x10(%rsp)
  4017fd:	8b 44 24 1c          	mov    0x1c(%rsp),%eax
  401801:	69 c0 b1 51 00 00    	imul   $0x51b1,%eax,%eax
  401807:	89 44 24 1c          	mov    %eax,0x1c(%rsp)
  40180b:	8b 44 24 10          	mov    0x10(%rsp),%eax
  40180f:	69 c0 6f 1d 00 00    	imul   $0x1d6f,%eax,%eax
  401815:	89 44 24 10          	mov    %eax,0x10(%rsp)
  401819:	8b 44 24 20          	mov    0x20(%rsp),%eax
  40181d:	69 c0 b9 1e 00 00    	imul   $0x1eb9,%eax,%eax
  401823:	89 44 24 20          	mov    %eax,0x20(%rsp)
  401827:	8b 44 24 18          	mov    0x18(%rsp),%eax
  40182b:	69 c0 08 63 00 00    	imul   $0x6308,%eax,%eax
  401831:	89 44 24 18          	mov    %eax,0x18(%rsp)
  401835:	8b 44 24 0c          	mov    0xc(%rsp),%eax
  401839:	69 c0 3b 99 00 00    	imul   $0x993b,%eax,%eax
  40183f:	89 44 24 0c          	mov    %eax,0xc(%rsp)
  401843:	8b 44 24 20          	mov    0x20(%rsp),%eax
  401847:	69 c0 00 91 00 00    	imul   $0x9100,%eax,%eax
  40184d:	89 44 24 20          	mov    %eax,0x20(%rsp)
  401851:	8b 44 24 0c          	mov    0xc(%rsp),%eax
  401855:	69 c0 15 d7 00 00    	imul   $0xd715,%eax,%eax
  40185b:	89 44 24 0c          	mov    %eax,0xc(%rsp)
  40185f:	8b 04 24             	mov    (%rsp),%eax
  401862:	69 c0 d6 4a 00 00    	imul   $0x4ad6,%eax,%eax
  401868:	89 04 24             	mov    %eax,(%rsp)
  40186b:	8b 04 24             	mov    (%rsp),%eax
  40186e:	69 c0 99 0f 00 00    	imul   $0xf99,%eax,%eax
  401874:	89 04 24             	mov    %eax,(%rsp)
  401877:	8b 44 24 04          	mov    0x4(%rsp),%eax
  40187b:	69 c0 8f 0c 00 00    	imul   $0xc8f,%eax,%eax
  401881:	89 44 24 04          	mov    %eax,0x4(%rsp)
  401885:	8b 44 24 0c          	mov    0xc(%rsp),%eax
  401889:	69 c0 ee a2 00 00    	imul   $0xa2ee,%eax,%eax
  40188f:	89 44 24 0c          	mov    %eax,0xc(%rsp)
  401893:	8b 04 24             	mov    (%rsp),%eax
  401896:	69 c0 b3 f0 00 00    	imul   $0xf0b3,%eax,%eax
  40189c:	89 04 24             	mov    %eax,(%rsp)
  40189f:	8b 44 24 0c          	mov    0xc(%rsp),%eax
  4018a3:	69 c0 36 c4 00 00    	imul   $0xc436,%eax,%eax
  4018a9:	89 44 24 0c          	mov    %eax,0xc(%rsp)
  4018ad:	8b 44 24 18          	mov    0x18(%rsp),%eax
  4018b1:	69 c0 61 e7 00 00    	imul   $0xe761,%eax,%eax
  4018b7:	89 44 24 18          	mov    %eax,0x18(%rsp)
  4018bb:	8b 44 24 1c          	mov    0x1c(%rsp),%eax
  4018bf:	69 c0 9c 6b 00 00    	imul   $0x6b9c,%eax,%eax
  4018c5:	89 44 24 1c          	mov    %eax,0x1c(%rsp)
  4018c9:	8b 44 24 04          	mov    0x4(%rsp),%eax
  4018cd:	69 c0 5a fe 00 00    	imul   $0xfe5a,%eax,%eax
  4018d3:	89 44 24 04          	mov    %eax,0x4(%rsp)
  4018d7:	8b 44 24 04          	mov    0x4(%rsp),%eax
  4018db:	69 c0 6e 35 00 00    	imul   $0x356e,%eax,%eax
  4018e1:	89 44 24 04          	mov    %eax,0x4(%rsp)
  4018e5:	8b 44 24 1c          	mov    0x1c(%rsp),%eax
  4018e9:	69 c0 24 f9 00 00    	imul   $0xf924,%eax,%eax
  4018ef:	89 44 24 1c          	mov    %eax,0x1c(%rsp)
  4018f3:	8b 44 24 10          	mov    0x10(%rsp),%eax
  4018f7:	69 c0 a9 39 00 00    	imul   $0x39a9,%eax,%eax
  4018fd:	89 44 24 10          	mov    %eax,0x10(%rsp)
  401901:	8b 44 24 10          	mov    0x10(%rsp),%eax
  401905:	69 c0 7b 13 00 00    	imul   $0x137b,%eax,%eax
  40190b:	89 44 24 10          	mov    %eax,0x10(%rsp)
  40190f:	8b 44 24 08          	mov    0x8(%rsp),%eax
  401913:	69 c0 6b 76 00 00    	imul   $0x766b,%eax,%eax
  401919:	89 44 24 08          	mov    %eax,0x8(%rsp)
  40191d:	8b 44 24 04          	mov    0x4(%rsp),%eax
  401921:	69 c0 37 46 00 00    	imul   $0x4637,%eax,%eax
  401927:	89 44 24 04          	mov    %eax,0x4(%rsp)
  40192b:	8b 44 24 1c          	mov    0x1c(%rsp),%eax
  40192f:	69 c0 5f 0a 00 00    	imul   $0xa5f,%eax,%eax
  401935:	89 44 24 1c          	mov    %eax,0x1c(%rsp)
  401939:	ba 00 00 00 00       	mov    $0x0,%edx
  40193e:	b8 00 00 00 00       	mov    $0x0,%eax
  401943:	eb 0a                	jmp    40194f <scramble+0x5a0>
  401945:	89 d1                	mov    %edx,%ecx
  401947:	8b 0c 8c             	mov    (%rsp,%rcx,4),%ecx
  40194a:	01 c8                	add    %ecx,%eax
  40194c:	83 c2 01             	add    $0x1,%edx
  40194f:	83 fa 09             	cmp    $0x9,%edx
  401952:	76 f1                	jbe    401945 <scramble+0x596>
  401954:	48 8b 74 24 28       	mov    0x28(%rsp),%rsi
  401959:	64 48 33 34 25 28 00 	xor    %fs:0x28,%rsi
  401960:	00 00 
  401962:	74 05                	je     401969 <scramble+0x5ba>
  401964:	e8 a7 f3 ff ff       	callq  400d10 <__stack_chk_fail@plt>
  401969:	48 83 c4 38          	add    $0x38,%rsp
  40196d:	c3                   	retq   

000000000040196e <getbuf>:
  40196e:	48 83 ec 18          	sub    $0x18,%rsp
  401972:	48 89 e7             	mov    %rsp,%rdi
  401975:	e8 7e 02 00 00       	callq  401bf8 <Gets>
  40197a:	b8 01 00 00 00       	mov    $0x1,%eax
  40197f:	48 83 c4 18          	add    $0x18,%rsp
  401983:	c3                   	retq   

0000000000401984 <touch1>:
  401984:	48 83 ec 08          	sub    $0x8,%rsp
  401988:	c7 05 8a 3b 20 00 01 	movl   $0x1,0x203b8a(%rip)        # 60551c <vlevel>
  40198f:	00 00 00 
  401992:	bf 66 33 40 00       	mov    $0x403366,%edi
  401997:	e8 54 f3 ff ff       	callq  400cf0 <puts@plt>
  40199c:	bf 01 00 00 00       	mov    $0x1,%edi
  4019a1:	e8 97 04 00 00       	callq  401e3d <validate>
  4019a6:	bf 00 00 00 00       	mov    $0x0,%edi
  4019ab:	e8 c0 f4 ff ff       	callq  400e70 <exit@plt>

00000000004019b0 <touch2>:
  4019b0:	48 83 ec 08          	sub    $0x8,%rsp
  4019b4:	89 fa                	mov    %edi,%edx
  4019b6:	c7 05 5c 3b 20 00 02 	movl   $0x2,0x203b5c(%rip)        # 60551c <vlevel>
  4019bd:	00 00 00 
  4019c0:	39 3d 5e 3b 20 00    	cmp    %edi,0x203b5e(%rip)        # 605524 <cookie>
  4019c6:	75 20                	jne    4019e8 <touch2+0x38>
  4019c8:	be 88 33 40 00       	mov    $0x403388,%esi
  4019cd:	bf 01 00 00 00       	mov    $0x1,%edi
  4019d2:	b8 00 00 00 00       	mov    $0x0,%eax
  4019d7:	e8 44 f4 ff ff       	callq  400e20 <__printf_chk@plt>
  4019dc:	bf 02 00 00 00       	mov    $0x2,%edi
  4019e1:	e8 57 04 00 00       	callq  401e3d <validate>
  4019e6:	eb 1e                	jmp    401a06 <touch2+0x56>
  4019e8:	be b0 33 40 00       	mov    $0x4033b0,%esi
  4019ed:	bf 01 00 00 00       	mov    $0x1,%edi
  4019f2:	b8 00 00 00 00       	mov    $0x0,%eax
  4019f7:	e8 24 f4 ff ff       	callq  400e20 <__printf_chk@plt>
  4019fc:	bf 02 00 00 00       	mov    $0x2,%edi
  401a01:	e8 f9 04 00 00       	callq  401eff <fail>
  401a06:	bf 00 00 00 00       	mov    $0x0,%edi
  401a0b:	e8 60 f4 ff ff       	callq  400e70 <exit@plt>

0000000000401a10 <hexmatch>:
  401a10:	41 54                	push   %r12
  401a12:	55                   	push   %rbp
  401a13:	53                   	push   %rbx
  401a14:	48 83 c4 80          	add    $0xffffffffffffff80,%rsp
  401a18:	89 fd                	mov    %edi,%ebp
  401a1a:	48 89 f3             	mov    %rsi,%rbx
  401a1d:	64 48 8b 04 25 28 00 	mov    %fs:0x28,%rax
  401a24:	00 00 
  401a26:	48 89 44 24 78       	mov    %rax,0x78(%rsp)
  401a2b:	31 c0                	xor    %eax,%eax
  401a2d:	e8 ae f3 ff ff       	callq  400de0 <random@plt>
  401a32:	48 89 c1             	mov    %rax,%rcx
  401a35:	48 ba 0b d7 a3 70 3d 	movabs $0xa3d70a3d70a3d70b,%rdx
  401a3c:	0a d7 a3 
  401a3f:	48 f7 ea             	imul   %rdx
  401a42:	48 01 ca             	add    %rcx,%rdx
  401a45:	48 c1 fa 06          	sar    $0x6,%rdx
  401a49:	48 89 c8             	mov    %rcx,%rax
  401a4c:	48 c1 f8 3f          	sar    $0x3f,%rax
  401a50:	48 29 c2             	sub    %rax,%rdx
  401a53:	48 8d 04 92          	lea    (%rdx,%rdx,4),%rax
  401a57:	48 8d 14 80          	lea    (%rax,%rax,4),%rdx
  401a5b:	48 8d 04 95 00 00 00 	lea    0x0(,%rdx,4),%rax
  401a62:	00 
  401a63:	48 29 c1             	sub    %rax,%rcx
  401a66:	4c 8d 24 0c          	lea    (%rsp,%rcx,1),%r12
  401a6a:	41 89 e8             	mov    %ebp,%r8d
  401a6d:	b9 83 33 40 00       	mov    $0x403383,%ecx
  401a72:	48 c7 c2 ff ff ff ff 	mov    $0xffffffffffffffff,%rdx
  401a79:	be 01 00 00 00       	mov    $0x1,%esi
  401a7e:	4c 89 e7             	mov    %r12,%rdi
  401a81:	b8 00 00 00 00       	mov    $0x0,%eax
  401a86:	e8 15 f4 ff ff       	callq  400ea0 <__sprintf_chk@plt>
  401a8b:	ba 09 00 00 00       	mov    $0x9,%edx
  401a90:	4c 89 e6             	mov    %r12,%rsi
  401a93:	48 89 df             	mov    %rbx,%rdi
  401a96:	e8 35 f2 ff ff       	callq  400cd0 <strncmp@plt>
  401a9b:	85 c0                	test   %eax,%eax
  401a9d:	0f 94 c0             	sete   %al
  401aa0:	48 8b 5c 24 78       	mov    0x78(%rsp),%rbx
  401aa5:	64 48 33 1c 25 28 00 	xor    %fs:0x28,%rbx
  401aac:	00 00 
  401aae:	74 05                	je     401ab5 <hexmatch+0xa5>
  401ab0:	e8 5b f2 ff ff       	callq  400d10 <__stack_chk_fail@plt>
  401ab5:	0f b6 c0             	movzbl %al,%eax
  401ab8:	48 83 ec 80          	sub    $0xffffffffffffff80,%rsp
  401abc:	5b                   	pop    %rbx
  401abd:	5d                   	pop    %rbp
  401abe:	41 5c                	pop    %r12
  401ac0:	c3                   	retq   

0000000000401ac1 <touch3>:
  401ac1:	53                   	push   %rbx
  401ac2:	48 89 fb             	mov    %rdi,%rbx
  401ac5:	c7 05 4d 3a 20 00 03 	movl   $0x3,0x203a4d(%rip)        # 60551c <vlevel>
  401acc:	00 00 00 
  401acf:	48 89 fe             	mov    %rdi,%rsi
  401ad2:	8b 3d 4c 3a 20 00    	mov    0x203a4c(%rip),%edi        # 605524 <cookie>
  401ad8:	e8 33 ff ff ff       	callq  401a10 <hexmatch>
  401add:	85 c0                	test   %eax,%eax
  401adf:	74 23                	je     401b04 <touch3+0x43>
  401ae1:	48 89 da             	mov    %rbx,%rdx
  401ae4:	be d8 33 40 00       	mov    $0x4033d8,%esi
  401ae9:	bf 01 00 00 00       	mov    $0x1,%edi
  401aee:	b8 00 00 00 00       	mov    $0x0,%eax
  401af3:	e8 28 f3 ff ff       	callq  400e20 <__printf_chk@plt>
  401af8:	bf 03 00 00 00       	mov    $0x3,%edi
  401afd:	e8 3b 03 00 00       	callq  401e3d <validate>
  401b02:	eb 21                	jmp    401b25 <touch3+0x64>
  401b04:	48 89 da             	mov    %rbx,%rdx
  401b07:	be 00 34 40 00       	mov    $0x403400,%esi
  401b0c:	bf 01 00 00 00       	mov    $0x1,%edi
  401b11:	b8 00 00 00 00       	mov    $0x0,%eax
  401b16:	e8 05 f3 ff ff       	callq  400e20 <__printf_chk@plt>
  401b1b:	bf 03 00 00 00       	mov    $0x3,%edi
  401b20:	e8 da 03 00 00       	callq  401eff <fail>
  401b25:	bf 00 00 00 00       	mov    $0x0,%edi
  401b2a:	e8 41 f3 ff ff       	callq  400e70 <exit@plt>

0000000000401b2f <test>:
  401b2f:	48 83 ec 08          	sub    $0x8,%rsp
  401b33:	b8 00 00 00 00       	mov    $0x0,%eax
  401b38:	e8 31 fe ff ff       	callq  40196e <getbuf>
  401b3d:	89 c2                	mov    %eax,%edx
  401b3f:	be 28 34 40 00       	mov    $0x403428,%esi
  401b44:	bf 01 00 00 00       	mov    $0x1,%edi
  401b49:	b8 00 00 00 00       	mov    $0x0,%eax
  401b4e:	e8 cd f2 ff ff       	callq  400e20 <__printf_chk@plt>
  401b53:	48 83 c4 08          	add    $0x8,%rsp
  401b57:	c3                   	retq   

0000000000401b58 <save_char>:
  401b58:	8b 05 e6 45 20 00    	mov    0x2045e6(%rip),%eax        # 606144 <gets_cnt>
  401b5e:	3d ff 03 00 00       	cmp    $0x3ff,%eax
  401b63:	7f 49                	jg     401bae <save_char+0x56>
  401b65:	8d 14 40             	lea    (%rax,%rax,2),%edx
  401b68:	89 f9                	mov    %edi,%ecx
  401b6a:	c0 e9 04             	shr    $0x4,%cl
  401b6d:	83 e1 0f             	and    $0xf,%ecx
  401b70:	0f b6 b1 50 37 40 00 	movzbl 0x403750(%rcx),%esi
  401b77:	48 63 ca             	movslq %edx,%rcx
  401b7a:	40 88 b1 40 55 60 00 	mov    %sil,0x605540(%rcx)
  401b81:	8d 4a 01             	lea    0x1(%rdx),%ecx
  401b84:	83 e7 0f             	and    $0xf,%edi
  401b87:	0f b6 b7 50 37 40 00 	movzbl 0x403750(%rdi),%esi
  401b8e:	48 63 c9             	movslq %ecx,%rcx
  401b91:	40 88 b1 40 55 60 00 	mov    %sil,0x605540(%rcx)
  401b98:	83 c2 02             	add    $0x2,%edx
  401b9b:	48 63 d2             	movslq %edx,%rdx
  401b9e:	c6 82 40 55 60 00 20 	movb   $0x20,0x605540(%rdx)
  401ba5:	83 c0 01             	add    $0x1,%eax
  401ba8:	89 05 96 45 20 00    	mov    %eax,0x204596(%rip)        # 606144 <gets_cnt>
  401bae:	f3 c3                	repz retq 

0000000000401bb0 <save_term>:
  401bb0:	8b 05 8e 45 20 00    	mov    0x20458e(%rip),%eax        # 606144 <gets_cnt>
  401bb6:	8d 04 40             	lea    (%rax,%rax,2),%eax
  401bb9:	48 98                	cltq   
  401bbb:	c6 80 40 55 60 00 00 	movb   $0x0,0x605540(%rax)
  401bc2:	c3                   	retq   

0000000000401bc3 <check_fail>:
  401bc3:	48 83 ec 08          	sub    $0x8,%rsp
  401bc7:	0f be 15 7a 45 20 00 	movsbl 0x20457a(%rip),%edx        # 606148 <target_prefix>
  401bce:	41 b8 40 55 60 00    	mov    $0x605540,%r8d
  401bd4:	8b 0d 3e 39 20 00    	mov    0x20393e(%rip),%ecx        # 605518 <check_level>
  401bda:	be 4b 34 40 00       	mov    $0x40344b,%esi
  401bdf:	bf 01 00 00 00       	mov    $0x1,%edi
  401be4:	b8 00 00 00 00       	mov    $0x0,%eax
  401be9:	e8 32 f2 ff ff       	callq  400e20 <__printf_chk@plt>
  401bee:	bf 01 00 00 00       	mov    $0x1,%edi
  401bf3:	e8 78 f2 ff ff       	callq  400e70 <exit@plt>

0000000000401bf8 <Gets>:
  401bf8:	41 54                	push   %r12
  401bfa:	55                   	push   %rbp
  401bfb:	53                   	push   %rbx
  401bfc:	49 89 fc             	mov    %rdi,%r12
  401bff:	c7 05 3b 45 20 00 00 	movl   $0x0,0x20453b(%rip)        # 606144 <gets_cnt>
  401c06:	00 00 00 
  401c09:	48 89 fb             	mov    %rdi,%rbx
  401c0c:	eb 11                	jmp    401c1f <Gets+0x27>
  401c0e:	48 8d 6b 01          	lea    0x1(%rbx),%rbp
  401c12:	88 03                	mov    %al,(%rbx)
  401c14:	0f b6 f8             	movzbl %al,%edi
  401c17:	e8 3c ff ff ff       	callq  401b58 <save_char>
  401c1c:	48 89 eb             	mov    %rbp,%rbx
  401c1f:	48 8b 3d ea 38 20 00 	mov    0x2038ea(%rip),%rdi        # 605510 <infile>
  401c26:	e8 c5 f1 ff ff       	callq  400df0 <_IO_getc@plt>
  401c2b:	83 f8 ff             	cmp    $0xffffffff,%eax
  401c2e:	74 05                	je     401c35 <Gets+0x3d>
  401c30:	83 f8 0a             	cmp    $0xa,%eax
  401c33:	75 d9                	jne    401c0e <Gets+0x16>
  401c35:	c6 03 00             	movb   $0x0,(%rbx)
  401c38:	b8 00 00 00 00       	mov    $0x0,%eax
  401c3d:	e8 6e ff ff ff       	callq  401bb0 <save_term>
  401c42:	4c 89 e0             	mov    %r12,%rax
  401c45:	5b                   	pop    %rbx
  401c46:	5d                   	pop    %rbp
  401c47:	41 5c                	pop    %r12
  401c49:	c3                   	retq   

0000000000401c4a <notify_server>:
  401c4a:	53                   	push   %rbx
  401c4b:	48 81 ec 10 40 00 00 	sub    $0x4010,%rsp
  401c52:	64 48 8b 04 25 28 00 	mov    %fs:0x28,%rax
  401c59:	00 00 
  401c5b:	48 89 84 24 08 40 00 	mov    %rax,0x4008(%rsp)
  401c62:	00 
  401c63:	31 c0                	xor    %eax,%eax
  401c65:	83 3d bc 38 20 00 00 	cmpl   $0x0,0x2038bc(%rip)        # 605528 <is_checker>
  401c6c:	0f 85 aa 01 00 00    	jne    401e1c <notify_server+0x1d2>
  401c72:	89 fb                	mov    %edi,%ebx
  401c74:	8b 05 ca 44 20 00    	mov    0x2044ca(%rip),%eax        # 606144 <gets_cnt>
  401c7a:	83 c0 64             	add    $0x64,%eax
  401c7d:	3d 00 20 00 00       	cmp    $0x2000,%eax
  401c82:	7e 1e                	jle    401ca2 <notify_server+0x58>
  401c84:	be 80 35 40 00       	mov    $0x403580,%esi
  401c89:	bf 01 00 00 00       	mov    $0x1,%edi
  401c8e:	b8 00 00 00 00       	mov    $0x0,%eax
  401c93:	e8 88 f1 ff ff       	callq  400e20 <__printf_chk@plt>
  401c98:	bf 01 00 00 00       	mov    $0x1,%edi
  401c9d:	e8 ce f1 ff ff       	callq  400e70 <exit@plt>
  401ca2:	0f be 05 9f 44 20 00 	movsbl 0x20449f(%rip),%eax        # 606148 <target_prefix>
  401ca9:	83 3d f8 37 20 00 00 	cmpl   $0x0,0x2037f8(%rip)        # 6054a8 <notify>
  401cb0:	74 08                	je     401cba <notify_server+0x70>
  401cb2:	8b 15 68 38 20 00    	mov    0x203868(%rip),%edx        # 605520 <authkey>
  401cb8:	eb 05                	jmp    401cbf <notify_server+0x75>
  401cba:	ba ff ff ff ff       	mov    $0xffffffff,%edx
  401cbf:	85 db                	test   %ebx,%ebx
  401cc1:	74 08                	je     401ccb <notify_server+0x81>
  401cc3:	41 b9 61 34 40 00    	mov    $0x403461,%r9d
  401cc9:	eb 06                	jmp    401cd1 <notify_server+0x87>
  401ccb:	41 b9 66 34 40 00    	mov    $0x403466,%r9d
  401cd1:	68 40 55 60 00       	pushq  $0x605540
  401cd6:	56                   	push   %rsi
  401cd7:	50                   	push   %rax
  401cd8:	52                   	push   %rdx
  401cd9:	44 8b 05 88 34 20 00 	mov    0x203488(%rip),%r8d        # 605168 <target_id>
  401ce0:	b9 6b 34 40 00       	mov    $0x40346b,%ecx
  401ce5:	ba 00 20 00 00       	mov    $0x2000,%edx
  401cea:	be 01 00 00 00       	mov    $0x1,%esi
  401cef:	48 8d 7c 24 20       	lea    0x20(%rsp),%rdi
  401cf4:	b8 00 00 00 00       	mov    $0x0,%eax
  401cf9:	e8 a2 f1 ff ff       	callq  400ea0 <__sprintf_chk@plt>
  401cfe:	48 83 c4 20          	add    $0x20,%rsp
  401d02:	83 3d 9f 37 20 00 00 	cmpl   $0x0,0x20379f(%rip)        # 6054a8 <notify>
  401d09:	0f 84 81 00 00 00    	je     401d90 <notify_server+0x146>
  401d0f:	4c 8d 8c 24 00 20 00 	lea    0x2000(%rsp),%r9
  401d16:	00 
  401d17:	41 b8 00 00 00 00    	mov    $0x0,%r8d
  401d1d:	48 89 e1             	mov    %rsp,%rcx
  401d20:	48 8b 15 49 34 20 00 	mov    0x203449(%rip),%rdx        # 605170 <lab>
  401d27:	48 8b 35 4a 34 20 00 	mov    0x20344a(%rip),%rsi        # 605178 <course>
  401d2e:	48 8b 3d 2b 34 20 00 	mov    0x20342b(%rip),%rdi        # 605160 <user_id>
  401d35:	e8 0e 11 00 00       	callq  402e48 <driver_post>
  401d3a:	85 c0                	test   %eax,%eax
  401d3c:	79 26                	jns    401d64 <notify_server+0x11a>
  401d3e:	48 8d 94 24 00 20 00 	lea    0x2000(%rsp),%rdx
  401d45:	00 
  401d46:	be 87 34 40 00       	mov    $0x403487,%esi
  401d4b:	bf 01 00 00 00       	mov    $0x1,%edi
  401d50:	b8 00 00 00 00       	mov    $0x0,%eax
  401d55:	e8 c6 f0 ff ff       	callq  400e20 <__printf_chk@plt>
  401d5a:	bf 01 00 00 00       	mov    $0x1,%edi
  401d5f:	e8 0c f1 ff ff       	callq  400e70 <exit@plt>
  401d64:	85 db                	test   %ebx,%ebx
  401d66:	74 19                	je     401d81 <notify_server+0x137>
  401d68:	bf b0 35 40 00       	mov    $0x4035b0,%edi
  401d6d:	e8 7e ef ff ff       	callq  400cf0 <puts@plt>
  401d72:	bf 93 34 40 00       	mov    $0x403493,%edi
  401d77:	e8 74 ef ff ff       	callq  400cf0 <puts@plt>
  401d7c:	e9 9b 00 00 00       	jmpq   401e1c <notify_server+0x1d2>
  401d81:	bf 9d 34 40 00       	mov    $0x40349d,%edi
  401d86:	e8 65 ef ff ff       	callq  400cf0 <puts@plt>
  401d8b:	e9 8c 00 00 00       	jmpq   401e1c <notify_server+0x1d2>
  401d90:	85 db                	test   %ebx,%ebx
  401d92:	74 07                	je     401d9b <notify_server+0x151>
  401d94:	ba 61 34 40 00       	mov    $0x403461,%edx
  401d99:	eb 05                	jmp    401da0 <notify_server+0x156>
  401d9b:	ba 66 34 40 00       	mov    $0x403466,%edx
  401da0:	be e8 35 40 00       	mov    $0x4035e8,%esi
  401da5:	bf 01 00 00 00       	mov    $0x1,%edi
  401daa:	b8 00 00 00 00       	mov    $0x0,%eax
  401daf:	e8 6c f0 ff ff       	callq  400e20 <__printf_chk@plt>
  401db4:	48 8b 15 a5 33 20 00 	mov    0x2033a5(%rip),%rdx        # 605160 <user_id>
  401dbb:	be a4 34 40 00       	mov    $0x4034a4,%esi
  401dc0:	bf 01 00 00 00       	mov    $0x1,%edi
  401dc5:	b8 00 00 00 00       	mov    $0x0,%eax
  401dca:	e8 51 f0 ff ff       	callq  400e20 <__printf_chk@plt>
  401dcf:	48 8b 15 a2 33 20 00 	mov    0x2033a2(%rip),%rdx        # 605178 <course>
  401dd6:	be b1 34 40 00       	mov    $0x4034b1,%esi
  401ddb:	bf 01 00 00 00       	mov    $0x1,%edi
  401de0:	b8 00 00 00 00       	mov    $0x0,%eax
  401de5:	e8 36 f0 ff ff       	callq  400e20 <__printf_chk@plt>
  401dea:	48 8b 15 7f 33 20 00 	mov    0x20337f(%rip),%rdx        # 605170 <lab>
  401df1:	be bd 34 40 00       	mov    $0x4034bd,%esi
  401df6:	bf 01 00 00 00       	mov    $0x1,%edi
  401dfb:	b8 00 00 00 00       	mov    $0x0,%eax
  401e00:	e8 1b f0 ff ff       	callq  400e20 <__printf_chk@plt>
  401e05:	48 89 e2             	mov    %rsp,%rdx
  401e08:	be c6 34 40 00       	mov    $0x4034c6,%esi
  401e0d:	bf 01 00 00 00       	mov    $0x1,%edi
  401e12:	b8 00 00 00 00       	mov    $0x0,%eax
  401e17:	e8 04 f0 ff ff       	callq  400e20 <__printf_chk@plt>
  401e1c:	48 8b 84 24 08 40 00 	mov    0x4008(%rsp),%rax
  401e23:	00 
  401e24:	64 48 33 04 25 28 00 	xor    %fs:0x28,%rax
  401e2b:	00 00 
  401e2d:	74 05                	je     401e34 <notify_server+0x1ea>
  401e2f:	e8 dc ee ff ff       	callq  400d10 <__stack_chk_fail@plt>
  401e34:	48 81 c4 10 40 00 00 	add    $0x4010,%rsp
  401e3b:	5b                   	pop    %rbx
  401e3c:	c3                   	retq   

0000000000401e3d <validate>:
  401e3d:	53                   	push   %rbx
  401e3e:	89 fb                	mov    %edi,%ebx
  401e40:	83 3d e1 36 20 00 00 	cmpl   $0x0,0x2036e1(%rip)        # 605528 <is_checker>
  401e47:	74 6b                	je     401eb4 <validate+0x77>
  401e49:	39 3d cd 36 20 00    	cmp    %edi,0x2036cd(%rip)        # 60551c <vlevel>
  401e4f:	74 14                	je     401e65 <validate+0x28>
  401e51:	bf d2 34 40 00       	mov    $0x4034d2,%edi
  401e56:	e8 95 ee ff ff       	callq  400cf0 <puts@plt>
  401e5b:	b8 00 00 00 00       	mov    $0x0,%eax
  401e60:	e8 5e fd ff ff       	callq  401bc3 <check_fail>
  401e65:	8b 15 ad 36 20 00    	mov    0x2036ad(%rip),%edx        # 605518 <check_level>
  401e6b:	39 d7                	cmp    %edx,%edi
  401e6d:	74 20                	je     401e8f <validate+0x52>
  401e6f:	89 f9                	mov    %edi,%ecx
  401e71:	be 10 36 40 00       	mov    $0x403610,%esi
  401e76:	bf 01 00 00 00       	mov    $0x1,%edi
  401e7b:	b8 00 00 00 00       	mov    $0x0,%eax
  401e80:	e8 9b ef ff ff       	callq  400e20 <__printf_chk@plt>
  401e85:	b8 00 00 00 00       	mov    $0x0,%eax
  401e8a:	e8 34 fd ff ff       	callq  401bc3 <check_fail>
  401e8f:	0f be 15 b2 42 20 00 	movsbl 0x2042b2(%rip),%edx        # 606148 <target_prefix>
  401e96:	41 b8 40 55 60 00    	mov    $0x605540,%r8d
  401e9c:	89 f9                	mov    %edi,%ecx
  401e9e:	be f0 34 40 00       	mov    $0x4034f0,%esi
  401ea3:	bf 01 00 00 00       	mov    $0x1,%edi
  401ea8:	b8 00 00 00 00       	mov    $0x0,%eax
  401ead:	e8 6e ef ff ff       	callq  400e20 <__printf_chk@plt>
  401eb2:	eb 49                	jmp    401efd <validate+0xc0>
  401eb4:	3b 3d 62 36 20 00    	cmp    0x203662(%rip),%edi        # 60551c <vlevel>
  401eba:	74 18                	je     401ed4 <validate+0x97>
  401ebc:	bf d2 34 40 00       	mov    $0x4034d2,%edi
  401ec1:	e8 2a ee ff ff       	callq  400cf0 <puts@plt>
  401ec6:	89 de                	mov    %ebx,%esi
  401ec8:	bf 00 00 00 00       	mov    $0x0,%edi
  401ecd:	e8 78 fd ff ff       	callq  401c4a <notify_server>
  401ed2:	eb 29                	jmp    401efd <validate+0xc0>
  401ed4:	0f be 0d 6d 42 20 00 	movsbl 0x20426d(%rip),%ecx        # 606148 <target_prefix>
  401edb:	89 fa                	mov    %edi,%edx
  401edd:	be 38 36 40 00       	mov    $0x403638,%esi
  401ee2:	bf 01 00 00 00       	mov    $0x1,%edi
  401ee7:	b8 00 00 00 00       	mov    $0x0,%eax
  401eec:	e8 2f ef ff ff       	callq  400e20 <__printf_chk@plt>
  401ef1:	89 de                	mov    %ebx,%esi
  401ef3:	bf 01 00 00 00       	mov    $0x1,%edi
  401ef8:	e8 4d fd ff ff       	callq  401c4a <notify_server>
  401efd:	5b                   	pop    %rbx
  401efe:	c3                   	retq   

0000000000401eff <fail>:
  401eff:	48 83 ec 08          	sub    $0x8,%rsp
  401f03:	83 3d 1e 36 20 00 00 	cmpl   $0x0,0x20361e(%rip)        # 605528 <is_checker>
  401f0a:	74 0a                	je     401f16 <fail+0x17>
  401f0c:	b8 00 00 00 00       	mov    $0x0,%eax
  401f11:	e8 ad fc ff ff       	callq  401bc3 <check_fail>
  401f16:	89 fe                	mov    %edi,%esi
  401f18:	bf 00 00 00 00       	mov    $0x0,%edi
  401f1d:	e8 28 fd ff ff       	callq  401c4a <notify_server>
  401f22:	48 83 c4 08          	add    $0x8,%rsp
  401f26:	c3                   	retq   

0000000000401f27 <bushandler>:
  401f27:	48 83 ec 08          	sub    $0x8,%rsp
  401f2b:	83 3d f6 35 20 00 00 	cmpl   $0x0,0x2035f6(%rip)        # 605528 <is_checker>
  401f32:	74 14                	je     401f48 <bushandler+0x21>
  401f34:	bf 05 35 40 00       	mov    $0x403505,%edi
  401f39:	e8 b2 ed ff ff       	callq  400cf0 <puts@plt>
  401f3e:	b8 00 00 00 00       	mov    $0x0,%eax
  401f43:	e8 7b fc ff ff       	callq  401bc3 <check_fail>
  401f48:	bf 70 36 40 00       	mov    $0x403670,%edi
  401f4d:	e8 9e ed ff ff       	callq  400cf0 <puts@plt>
  401f52:	bf 0f 35 40 00       	mov    $0x40350f,%edi
  401f57:	e8 94 ed ff ff       	callq  400cf0 <puts@plt>
  401f5c:	be 00 00 00 00       	mov    $0x0,%esi
  401f61:	bf 00 00 00 00       	mov    $0x0,%edi
  401f66:	e8 df fc ff ff       	callq  401c4a <notify_server>
  401f6b:	bf 01 00 00 00       	mov    $0x1,%edi
  401f70:	e8 fb ee ff ff       	callq  400e70 <exit@plt>

0000000000401f75 <seghandler>:
  401f75:	48 83 ec 08          	sub    $0x8,%rsp
  401f79:	83 3d a8 35 20 00 00 	cmpl   $0x0,0x2035a8(%rip)        # 605528 <is_checker>
  401f80:	74 14                	je     401f96 <seghandler+0x21>
  401f82:	bf 25 35 40 00       	mov    $0x403525,%edi
  401f87:	e8 64 ed ff ff       	callq  400cf0 <puts@plt>
  401f8c:	b8 00 00 00 00       	mov    $0x0,%eax
  401f91:	e8 2d fc ff ff       	callq  401bc3 <check_fail>
  401f96:	bf 90 36 40 00       	mov    $0x403690,%edi
  401f9b:	e8 50 ed ff ff       	callq  400cf0 <puts@plt>
  401fa0:	bf 0f 35 40 00       	mov    $0x40350f,%edi
  401fa5:	e8 46 ed ff ff       	callq  400cf0 <puts@plt>
  401faa:	be 00 00 00 00       	mov    $0x0,%esi
  401faf:	bf 00 00 00 00       	mov    $0x0,%edi
  401fb4:	e8 91 fc ff ff       	callq  401c4a <notify_server>
  401fb9:	bf 01 00 00 00       	mov    $0x1,%edi
  401fbe:	e8 ad ee ff ff       	callq  400e70 <exit@plt>

0000000000401fc3 <illegalhandler>:
  401fc3:	48 83 ec 08          	sub    $0x8,%rsp
  401fc7:	83 3d 5a 35 20 00 00 	cmpl   $0x0,0x20355a(%rip)        # 605528 <is_checker>
  401fce:	74 14                	je     401fe4 <illegalhandler+0x21>
  401fd0:	bf 38 35 40 00       	mov    $0x403538,%edi
  401fd5:	e8 16 ed ff ff       	callq  400cf0 <puts@plt>
  401fda:	b8 00 00 00 00       	mov    $0x0,%eax
  401fdf:	e8 df fb ff ff       	callq  401bc3 <check_fail>
  401fe4:	bf b8 36 40 00       	mov    $0x4036b8,%edi
  401fe9:	e8 02 ed ff ff       	callq  400cf0 <puts@plt>
  401fee:	bf 0f 35 40 00       	mov    $0x40350f,%edi
  401ff3:	e8 f8 ec ff ff       	callq  400cf0 <puts@plt>
  401ff8:	be 00 00 00 00       	mov    $0x0,%esi
  401ffd:	bf 00 00 00 00       	mov    $0x0,%edi
  402002:	e8 43 fc ff ff       	callq  401c4a <notify_server>
  402007:	bf 01 00 00 00       	mov    $0x1,%edi
  40200c:	e8 5f ee ff ff       	callq  400e70 <exit@plt>

0000000000402011 <sigalrmhandler>:
  402011:	48 83 ec 08          	sub    $0x8,%rsp
  402015:	83 3d 0c 35 20 00 00 	cmpl   $0x0,0x20350c(%rip)        # 605528 <is_checker>
  40201c:	74 14                	je     402032 <sigalrmhandler+0x21>
  40201e:	bf 4c 35 40 00       	mov    $0x40354c,%edi
  402023:	e8 c8 ec ff ff       	callq  400cf0 <puts@plt>
  402028:	b8 00 00 00 00       	mov    $0x0,%eax
  40202d:	e8 91 fb ff ff       	callq  401bc3 <check_fail>
  402032:	ba 05 00 00 00       	mov    $0x5,%edx
  402037:	be e8 36 40 00       	mov    $0x4036e8,%esi
  40203c:	bf 01 00 00 00       	mov    $0x1,%edi
  402041:	b8 00 00 00 00       	mov    $0x0,%eax
  402046:	e8 d5 ed ff ff       	callq  400e20 <__printf_chk@plt>
  40204b:	be 00 00 00 00       	mov    $0x0,%esi
  402050:	bf 00 00 00 00       	mov    $0x0,%edi
  402055:	e8 f0 fb ff ff       	callq  401c4a <notify_server>
  40205a:	bf 01 00 00 00       	mov    $0x1,%edi
  40205f:	e8 0c ee ff ff       	callq  400e70 <exit@plt>

0000000000402064 <launch>:
  402064:	55                   	push   %rbp
  402065:	48 89 e5             	mov    %rsp,%rbp
  402068:	48 83 ec 10          	sub    $0x10,%rsp
  40206c:	48 89 fa             	mov    %rdi,%rdx
  40206f:	64 48 8b 04 25 28 00 	mov    %fs:0x28,%rax
  402076:	00 00 
  402078:	48 89 45 f8          	mov    %rax,-0x8(%rbp)
  40207c:	31 c0                	xor    %eax,%eax
  40207e:	48 8d 47 1e          	lea    0x1e(%rdi),%rax
  402082:	48 83 e0 f0          	and    $0xfffffffffffffff0,%rax
  402086:	48 29 c4             	sub    %rax,%rsp
  402089:	48 8d 7c 24 0f       	lea    0xf(%rsp),%rdi
  40208e:	48 83 e7 f0          	and    $0xfffffffffffffff0,%rdi
  402092:	be f4 00 00 00       	mov    $0xf4,%esi
  402097:	e8 94 ec ff ff       	callq  400d30 <memset@plt>
  40209c:	48 8b 05 1d 34 20 00 	mov    0x20341d(%rip),%rax        # 6054c0 <stdin@@GLIBC_2.2.5>
  4020a3:	48 39 05 66 34 20 00 	cmp    %rax,0x203466(%rip)        # 605510 <infile>
  4020aa:	75 14                	jne    4020c0 <launch+0x5c>
  4020ac:	be 54 35 40 00       	mov    $0x403554,%esi
  4020b1:	bf 01 00 00 00       	mov    $0x1,%edi
  4020b6:	b8 00 00 00 00       	mov    $0x0,%eax
  4020bb:	e8 60 ed ff ff       	callq  400e20 <__printf_chk@plt>
  4020c0:	c7 05 52 34 20 00 00 	movl   $0x0,0x203452(%rip)        # 60551c <vlevel>
  4020c7:	00 00 00 
  4020ca:	b8 00 00 00 00       	mov    $0x0,%eax
  4020cf:	e8 5b fa ff ff       	callq  401b2f <test>
  4020d4:	83 3d 4d 34 20 00 00 	cmpl   $0x0,0x20344d(%rip)        # 605528 <is_checker>
  4020db:	74 14                	je     4020f1 <launch+0x8d>
  4020dd:	bf 61 35 40 00       	mov    $0x403561,%edi
  4020e2:	e8 09 ec ff ff       	callq  400cf0 <puts@plt>
  4020e7:	b8 00 00 00 00       	mov    $0x0,%eax
  4020ec:	e8 d2 fa ff ff       	callq  401bc3 <check_fail>
  4020f1:	bf 6c 35 40 00       	mov    $0x40356c,%edi
  4020f6:	e8 f5 eb ff ff       	callq  400cf0 <puts@plt>
  4020fb:	48 8b 45 f8          	mov    -0x8(%rbp),%rax
  4020ff:	64 48 33 04 25 28 00 	xor    %fs:0x28,%rax
  402106:	00 00 
  402108:	74 05                	je     40210f <launch+0xab>
  40210a:	e8 01 ec ff ff       	callq  400d10 <__stack_chk_fail@plt>
  40210f:	c9                   	leaveq 
  402110:	c3                   	retq   

0000000000402111 <stable_launch>:
  402111:	53                   	push   %rbx
  402112:	48 89 3d ef 33 20 00 	mov    %rdi,0x2033ef(%rip)        # 605508 <global_offset>
  402119:	41 b9 00 00 00 00    	mov    $0x0,%r9d
  40211f:	41 b8 00 00 00 00    	mov    $0x0,%r8d
  402125:	b9 32 01 00 00       	mov    $0x132,%ecx
  40212a:	ba 07 00 00 00       	mov    $0x7,%edx
  40212f:	be 00 00 10 00       	mov    $0x100000,%esi
  402134:	bf 00 60 58 55       	mov    $0x55586000,%edi
  402139:	e8 e2 eb ff ff       	callq  400d20 <mmap@plt>
  40213e:	48 89 c3             	mov    %rax,%rbx
  402141:	48 3d 00 60 58 55    	cmp    $0x55586000,%rax
  402147:	74 37                	je     402180 <stable_launch+0x6f>
  402149:	be 00 00 10 00       	mov    $0x100000,%esi
  40214e:	48 89 c7             	mov    %rax,%rdi
  402151:	e8 ba ec ff ff       	callq  400e10 <munmap@plt>
  402156:	b9 00 60 58 55       	mov    $0x55586000,%ecx
  40215b:	ba 20 37 40 00       	mov    $0x403720,%edx
  402160:	be 01 00 00 00       	mov    $0x1,%esi
  402165:	48 8b 3d 74 33 20 00 	mov    0x203374(%rip),%rdi        # 6054e0 <stderr@@GLIBC_2.2.5>
  40216c:	b8 00 00 00 00       	mov    $0x0,%eax
  402171:	e8 1a ed ff ff       	callq  400e90 <__fprintf_chk@plt>
  402176:	bf 01 00 00 00       	mov    $0x1,%edi
  40217b:	e8 f0 ec ff ff       	callq  400e70 <exit@plt>
  402180:	48 8d 90 f8 ff 0f 00 	lea    0xffff8(%rax),%rdx
  402187:	48 89 15 c2 3f 20 00 	mov    %rdx,0x203fc2(%rip)        # 606150 <stack_top>
  40218e:	48 89 e0             	mov    %rsp,%rax
  402191:	48 89 d4             	mov    %rdx,%rsp
  402194:	48 89 c2             	mov    %rax,%rdx
  402197:	48 89 15 62 33 20 00 	mov    %rdx,0x203362(%rip)        # 605500 <global_save_stack>
  40219e:	48 8b 3d 63 33 20 00 	mov    0x203363(%rip),%rdi        # 605508 <global_offset>
  4021a5:	e8 ba fe ff ff       	callq  402064 <launch>
  4021aa:	48 8b 05 4f 33 20 00 	mov    0x20334f(%rip),%rax        # 605500 <global_save_stack>
  4021b1:	48 89 c4             	mov    %rax,%rsp
  4021b4:	be 00 00 10 00       	mov    $0x100000,%esi
  4021b9:	48 89 df             	mov    %rbx,%rdi
  4021bc:	e8 4f ec ff ff       	callq  400e10 <munmap@plt>
  4021c1:	5b                   	pop    %rbx
  4021c2:	c3                   	retq   

00000000004021c3 <rio_readinitb>:
  4021c3:	89 37                	mov    %esi,(%rdi)
  4021c5:	c7 47 04 00 00 00 00 	movl   $0x0,0x4(%rdi)
  4021cc:	48 8d 47 10          	lea    0x10(%rdi),%rax
  4021d0:	48 89 47 08          	mov    %rax,0x8(%rdi)
  4021d4:	c3                   	retq   

00000000004021d5 <sigalrm_handler>:
  4021d5:	48 83 ec 08          	sub    $0x8,%rsp
  4021d9:	b9 00 00 00 00       	mov    $0x0,%ecx
  4021de:	ba 60 37 40 00       	mov    $0x403760,%edx
  4021e3:	be 01 00 00 00       	mov    $0x1,%esi
  4021e8:	48 8b 3d f1 32 20 00 	mov    0x2032f1(%rip),%rdi        # 6054e0 <stderr@@GLIBC_2.2.5>
  4021ef:	b8 00 00 00 00       	mov    $0x0,%eax
  4021f4:	e8 97 ec ff ff       	callq  400e90 <__fprintf_chk@plt>
  4021f9:	bf 01 00 00 00       	mov    $0x1,%edi
  4021fe:	e8 6d ec ff ff       	callq  400e70 <exit@plt>

0000000000402203 <rio_writen>:
  402203:	41 55                	push   %r13
  402205:	41 54                	push   %r12
  402207:	55                   	push   %rbp
  402208:	53                   	push   %rbx
  402209:	48 83 ec 08          	sub    $0x8,%rsp
  40220d:	41 89 fc             	mov    %edi,%r12d
  402210:	48 89 f5             	mov    %rsi,%rbp
  402213:	49 89 d5             	mov    %rdx,%r13
  402216:	48 89 d3             	mov    %rdx,%rbx
  402219:	eb 28                	jmp    402243 <rio_writen+0x40>
  40221b:	48 89 da             	mov    %rbx,%rdx
  40221e:	48 89 ee             	mov    %rbp,%rsi
  402221:	44 89 e7             	mov    %r12d,%edi
  402224:	e8 d7 ea ff ff       	callq  400d00 <write@plt>
  402229:	48 85 c0             	test   %rax,%rax
  40222c:	7f 0f                	jg     40223d <rio_writen+0x3a>
  40222e:	e8 7d ea ff ff       	callq  400cb0 <__errno_location@plt>
  402233:	83 38 04             	cmpl   $0x4,(%rax)
  402236:	75 15                	jne    40224d <rio_writen+0x4a>
  402238:	b8 00 00 00 00       	mov    $0x0,%eax
  40223d:	48 29 c3             	sub    %rax,%rbx
  402240:	48 01 c5             	add    %rax,%rbp
  402243:	48 85 db             	test   %rbx,%rbx
  402246:	75 d3                	jne    40221b <rio_writen+0x18>
  402248:	4c 89 e8             	mov    %r13,%rax
  40224b:	eb 07                	jmp    402254 <rio_writen+0x51>
  40224d:	48 c7 c0 ff ff ff ff 	mov    $0xffffffffffffffff,%rax
  402254:	48 83 c4 08          	add    $0x8,%rsp
  402258:	5b                   	pop    %rbx
  402259:	5d                   	pop    %rbp
  40225a:	41 5c                	pop    %r12
  40225c:	41 5d                	pop    %r13
  40225e:	c3                   	retq   

000000000040225f <rio_read>:
  40225f:	41 55                	push   %r13
  402261:	41 54                	push   %r12
  402263:	55                   	push   %rbp
  402264:	53                   	push   %rbx
  402265:	48 83 ec 08          	sub    $0x8,%rsp
  402269:	48 89 fb             	mov    %rdi,%rbx
  40226c:	49 89 f5             	mov    %rsi,%r13
  40226f:	49 89 d4             	mov    %rdx,%r12
  402272:	eb 2e                	jmp    4022a2 <rio_read+0x43>
  402274:	48 8d 6b 10          	lea    0x10(%rbx),%rbp
  402278:	8b 3b                	mov    (%rbx),%edi
  40227a:	ba 00 20 00 00       	mov    $0x2000,%edx
  40227f:	48 89 ee             	mov    %rbp,%rsi
  402282:	e8 d9 ea ff ff       	callq  400d60 <read@plt>
  402287:	89 43 04             	mov    %eax,0x4(%rbx)
  40228a:	85 c0                	test   %eax,%eax
  40228c:	79 0c                	jns    40229a <rio_read+0x3b>
  40228e:	e8 1d ea ff ff       	callq  400cb0 <__errno_location@plt>
  402293:	83 38 04             	cmpl   $0x4,(%rax)
  402296:	74 0a                	je     4022a2 <rio_read+0x43>
  402298:	eb 37                	jmp    4022d1 <rio_read+0x72>
  40229a:	85 c0                	test   %eax,%eax
  40229c:	74 3c                	je     4022da <rio_read+0x7b>
  40229e:	48 89 6b 08          	mov    %rbp,0x8(%rbx)
  4022a2:	8b 6b 04             	mov    0x4(%rbx),%ebp
  4022a5:	85 ed                	test   %ebp,%ebp
  4022a7:	7e cb                	jle    402274 <rio_read+0x15>
  4022a9:	89 e8                	mov    %ebp,%eax
  4022ab:	49 39 c4             	cmp    %rax,%r12
  4022ae:	77 03                	ja     4022b3 <rio_read+0x54>
  4022b0:	44 89 e5             	mov    %r12d,%ebp
  4022b3:	4c 63 e5             	movslq %ebp,%r12
  4022b6:	48 8b 73 08          	mov    0x8(%rbx),%rsi
  4022ba:	4c 89 e2             	mov    %r12,%rdx
  4022bd:	4c 89 ef             	mov    %r13,%rdi
  4022c0:	e8 fb ea ff ff       	callq  400dc0 <memcpy@plt>
  4022c5:	4c 01 63 08          	add    %r12,0x8(%rbx)
  4022c9:	29 6b 04             	sub    %ebp,0x4(%rbx)
  4022cc:	4c 89 e0             	mov    %r12,%rax
  4022cf:	eb 0e                	jmp    4022df <rio_read+0x80>
  4022d1:	48 c7 c0 ff ff ff ff 	mov    $0xffffffffffffffff,%rax
  4022d8:	eb 05                	jmp    4022df <rio_read+0x80>
  4022da:	b8 00 00 00 00       	mov    $0x0,%eax
  4022df:	48 83 c4 08          	add    $0x8,%rsp
  4022e3:	5b                   	pop    %rbx
  4022e4:	5d                   	pop    %rbp
  4022e5:	41 5c                	pop    %r12
  4022e7:	41 5d                	pop    %r13
  4022e9:	c3                   	retq   

00000000004022ea <rio_readlineb>:
  4022ea:	41 55                	push   %r13
  4022ec:	41 54                	push   %r12
  4022ee:	55                   	push   %rbp
  4022ef:	53                   	push   %rbx
  4022f0:	48 83 ec 18          	sub    $0x18,%rsp
  4022f4:	49 89 fd             	mov    %rdi,%r13
  4022f7:	48 89 f5             	mov    %rsi,%rbp
  4022fa:	49 89 d4             	mov    %rdx,%r12
  4022fd:	64 48 8b 04 25 28 00 	mov    %fs:0x28,%rax
  402304:	00 00 
  402306:	48 89 44 24 08       	mov    %rax,0x8(%rsp)
  40230b:	31 c0                	xor    %eax,%eax
  40230d:	bb 01 00 00 00       	mov    $0x1,%ebx
  402312:	eb 3f                	jmp    402353 <rio_readlineb+0x69>
  402314:	ba 01 00 00 00       	mov    $0x1,%edx
  402319:	48 8d 74 24 07       	lea    0x7(%rsp),%rsi
  40231e:	4c 89 ef             	mov    %r13,%rdi
  402321:	e8 39 ff ff ff       	callq  40225f <rio_read>
  402326:	83 f8 01             	cmp    $0x1,%eax
  402329:	75 15                	jne    402340 <rio_readlineb+0x56>
  40232b:	48 8d 45 01          	lea    0x1(%rbp),%rax
  40232f:	0f b6 54 24 07       	movzbl 0x7(%rsp),%edx
  402334:	88 55 00             	mov    %dl,0x0(%rbp)
  402337:	80 7c 24 07 0a       	cmpb   $0xa,0x7(%rsp)
  40233c:	75 0e                	jne    40234c <rio_readlineb+0x62>
  40233e:	eb 1a                	jmp    40235a <rio_readlineb+0x70>
  402340:	85 c0                	test   %eax,%eax
  402342:	75 22                	jne    402366 <rio_readlineb+0x7c>
  402344:	48 83 fb 01          	cmp    $0x1,%rbx
  402348:	75 13                	jne    40235d <rio_readlineb+0x73>
  40234a:	eb 23                	jmp    40236f <rio_readlineb+0x85>
  40234c:	48 83 c3 01          	add    $0x1,%rbx
  402350:	48 89 c5             	mov    %rax,%rbp
  402353:	4c 39 e3             	cmp    %r12,%rbx
  402356:	72 bc                	jb     402314 <rio_readlineb+0x2a>
  402358:	eb 03                	jmp    40235d <rio_readlineb+0x73>
  40235a:	48 89 c5             	mov    %rax,%rbp
  40235d:	c6 45 00 00          	movb   $0x0,0x0(%rbp)
  402361:	48 89 d8             	mov    %rbx,%rax
  402364:	eb 0e                	jmp    402374 <rio_readlineb+0x8a>
  402366:	48 c7 c0 ff ff ff ff 	mov    $0xffffffffffffffff,%rax
  40236d:	eb 05                	jmp    402374 <rio_readlineb+0x8a>
  40236f:	b8 00 00 00 00       	mov    $0x0,%eax
  402374:	48 8b 4c 24 08       	mov    0x8(%rsp),%rcx
  402379:	64 48 33 0c 25 28 00 	xor    %fs:0x28,%rcx
  402380:	00 00 
  402382:	74 05                	je     402389 <rio_readlineb+0x9f>
  402384:	e8 87 e9 ff ff       	callq  400d10 <__stack_chk_fail@plt>
  402389:	48 83 c4 18          	add    $0x18,%rsp
  40238d:	5b                   	pop    %rbx
  40238e:	5d                   	pop    %rbp
  40238f:	41 5c                	pop    %r12
  402391:	41 5d                	pop    %r13
  402393:	c3                   	retq   

0000000000402394 <urlencode>:
  402394:	41 54                	push   %r12
  402396:	55                   	push   %rbp
  402397:	53                   	push   %rbx
  402398:	48 83 ec 10          	sub    $0x10,%rsp
  40239c:	48 89 fb             	mov    %rdi,%rbx
  40239f:	48 89 f5             	mov    %rsi,%rbp
  4023a2:	64 48 8b 04 25 28 00 	mov    %fs:0x28,%rax
  4023a9:	00 00 
  4023ab:	48 89 44 24 08       	mov    %rax,0x8(%rsp)
  4023b0:	31 c0                	xor    %eax,%eax
  4023b2:	48 c7 c1 ff ff ff ff 	mov    $0xffffffffffffffff,%rcx
  4023b9:	f2 ae                	repnz scas %es:(%rdi),%al
  4023bb:	48 f7 d1             	not    %rcx
  4023be:	8d 41 ff             	lea    -0x1(%rcx),%eax
  4023c1:	e9 aa 00 00 00       	jmpq   402470 <urlencode+0xdc>
  4023c6:	44 0f b6 03          	movzbl (%rbx),%r8d
  4023ca:	41 80 f8 2a          	cmp    $0x2a,%r8b
  4023ce:	0f 94 c2             	sete   %dl
  4023d1:	41 80 f8 2d          	cmp    $0x2d,%r8b
  4023d5:	0f 94 c0             	sete   %al
  4023d8:	08 c2                	or     %al,%dl
  4023da:	75 24                	jne    402400 <urlencode+0x6c>
  4023dc:	41 80 f8 2e          	cmp    $0x2e,%r8b
  4023e0:	74 1e                	je     402400 <urlencode+0x6c>
  4023e2:	41 80 f8 5f          	cmp    $0x5f,%r8b
  4023e6:	74 18                	je     402400 <urlencode+0x6c>
  4023e8:	41 8d 40 d0          	lea    -0x30(%r8),%eax
  4023ec:	3c 09                	cmp    $0x9,%al
  4023ee:	76 10                	jbe    402400 <urlencode+0x6c>
  4023f0:	41 8d 40 bf          	lea    -0x41(%r8),%eax
  4023f4:	3c 19                	cmp    $0x19,%al
  4023f6:	76 08                	jbe    402400 <urlencode+0x6c>
  4023f8:	41 8d 40 9f          	lea    -0x61(%r8),%eax
  4023fc:	3c 19                	cmp    $0x19,%al
  4023fe:	77 0a                	ja     40240a <urlencode+0x76>
  402400:	44 88 45 00          	mov    %r8b,0x0(%rbp)
  402404:	48 8d 6d 01          	lea    0x1(%rbp),%rbp
  402408:	eb 5f                	jmp    402469 <urlencode+0xd5>
  40240a:	41 80 f8 20          	cmp    $0x20,%r8b
  40240e:	75 0a                	jne    40241a <urlencode+0x86>
  402410:	c6 45 00 2b          	movb   $0x2b,0x0(%rbp)
  402414:	48 8d 6d 01          	lea    0x1(%rbp),%rbp
  402418:	eb 4f                	jmp    402469 <urlencode+0xd5>
  40241a:	41 8d 40 e0          	lea    -0x20(%r8),%eax
  40241e:	3c 5f                	cmp    $0x5f,%al
  402420:	0f 96 c2             	setbe  %dl
  402423:	41 80 f8 09          	cmp    $0x9,%r8b
  402427:	0f 94 c0             	sete   %al
  40242a:	08 c2                	or     %al,%dl
  40242c:	74 50                	je     40247e <urlencode+0xea>
  40242e:	45 0f b6 c0          	movzbl %r8b,%r8d
  402432:	b9 18 38 40 00       	mov    $0x403818,%ecx
  402437:	ba 08 00 00 00       	mov    $0x8,%edx
  40243c:	be 01 00 00 00       	mov    $0x1,%esi
  402441:	48 89 e7             	mov    %rsp,%rdi
  402444:	b8 00 00 00 00       	mov    $0x0,%eax
  402449:	e8 52 ea ff ff       	callq  400ea0 <__sprintf_chk@plt>
  40244e:	0f b6 04 24          	movzbl (%rsp),%eax
  402452:	88 45 00             	mov    %al,0x0(%rbp)
  402455:	0f b6 44 24 01       	movzbl 0x1(%rsp),%eax
  40245a:	88 45 01             	mov    %al,0x1(%rbp)
  40245d:	0f b6 44 24 02       	movzbl 0x2(%rsp),%eax
  402462:	88 45 02             	mov    %al,0x2(%rbp)
  402465:	48 8d 6d 03          	lea    0x3(%rbp),%rbp
  402469:	48 83 c3 01          	add    $0x1,%rbx
  40246d:	44 89 e0             	mov    %r12d,%eax
  402470:	44 8d 60 ff          	lea    -0x1(%rax),%r12d
  402474:	85 c0                	test   %eax,%eax
  402476:	0f 85 4a ff ff ff    	jne    4023c6 <urlencode+0x32>
  40247c:	eb 05                	jmp    402483 <urlencode+0xef>
  40247e:	b8 ff ff ff ff       	mov    $0xffffffff,%eax
  402483:	48 8b 74 24 08       	mov    0x8(%rsp),%rsi
  402488:	64 48 33 34 25 28 00 	xor    %fs:0x28,%rsi
  40248f:	00 00 
  402491:	74 05                	je     402498 <urlencode+0x104>
  402493:	e8 78 e8 ff ff       	callq  400d10 <__stack_chk_fail@plt>
  402498:	48 83 c4 10          	add    $0x10,%rsp
  40249c:	5b                   	pop    %rbx
  40249d:	5d                   	pop    %rbp
  40249e:	41 5c                	pop    %r12
  4024a0:	c3                   	retq   

00000000004024a1 <submitr>:
  4024a1:	41 57                	push   %r15
  4024a3:	41 56                	push   %r14
  4024a5:	41 55                	push   %r13
  4024a7:	41 54                	push   %r12
  4024a9:	55                   	push   %rbp
  4024aa:	53                   	push   %rbx
  4024ab:	48 81 ec 58 a0 00 00 	sub    $0xa058,%rsp
  4024b2:	49 89 fd             	mov    %rdi,%r13
  4024b5:	89 74 24 0c          	mov    %esi,0xc(%rsp)
  4024b9:	48 89 14 24          	mov    %rdx,(%rsp)
  4024bd:	49 89 ce             	mov    %rcx,%r14
  4024c0:	4d 89 c7             	mov    %r8,%r15
  4024c3:	4d 89 cc             	mov    %r9,%r12
  4024c6:	48 8b 9c 24 90 a0 00 	mov    0xa090(%rsp),%rbx
  4024cd:	00 
  4024ce:	64 48 8b 04 25 28 00 	mov    %fs:0x28,%rax
  4024d5:	00 00 
  4024d7:	48 89 84 24 48 a0 00 	mov    %rax,0xa048(%rsp)
  4024de:	00 
  4024df:	31 c0                	xor    %eax,%eax
  4024e1:	c7 44 24 1c 00 00 00 	movl   $0x0,0x1c(%rsp)
  4024e8:	00 
  4024e9:	ba 00 00 00 00       	mov    $0x0,%edx
  4024ee:	be 01 00 00 00       	mov    $0x1,%esi
  4024f3:	bf 02 00 00 00       	mov    $0x2,%edi
  4024f8:	e8 b3 e9 ff ff       	callq  400eb0 <socket@plt>
  4024fd:	85 c0                	test   %eax,%eax
  4024ff:	79 4e                	jns    40254f <submitr+0xae>
  402501:	48 b8 45 72 72 6f 72 	movabs $0x43203a726f727245,%rax
  402508:	3a 20 43 
  40250b:	48 89 03             	mov    %rax,(%rbx)
  40250e:	48 b8 6c 69 65 6e 74 	movabs $0x6e7520746e65696c,%rax
  402515:	20 75 6e 
  402518:	48 89 43 08          	mov    %rax,0x8(%rbx)
  40251c:	48 b8 61 62 6c 65 20 	movabs $0x206f7420656c6261,%rax
  402523:	74 6f 20 
  402526:	48 89 43 10          	mov    %rax,0x10(%rbx)
  40252a:	48 b8 63 72 65 61 74 	movabs $0x7320657461657263,%rax
  402531:	65 20 73 
  402534:	48 89 43 18          	mov    %rax,0x18(%rbx)
  402538:	c7 43 20 6f 63 6b 65 	movl   $0x656b636f,0x20(%rbx)
  40253f:	66 c7 43 24 74 00    	movw   $0x74,0x24(%rbx)
  402545:	b8 ff ff ff ff       	mov    $0xffffffff,%eax
  40254a:	e9 b3 06 00 00       	jmpq   402c02 <submitr+0x761>
  40254f:	89 c5                	mov    %eax,%ebp
  402551:	4c 89 ef             	mov    %r13,%rdi
  402554:	e8 37 e8 ff ff       	callq  400d90 <gethostbyname@plt>
  402559:	48 85 c0             	test   %rax,%rax
  40255c:	75 75                	jne    4025d3 <submitr+0x132>
  40255e:	48 b8 45 72 72 6f 72 	movabs $0x44203a726f727245,%rax
  402565:	3a 20 44 
  402568:	48 89 03             	mov    %rax,(%rbx)
  40256b:	48 b8 4e 53 20 69 73 	movabs $0x6e7520736920534e,%rax
  402572:	20 75 6e 
  402575:	48 89 43 08          	mov    %rax,0x8(%rbx)
  402579:	48 b8 61 62 6c 65 20 	movabs $0x206f7420656c6261,%rax
  402580:	74 6f 20 
  402583:	48 89 43 10          	mov    %rax,0x10(%rbx)
  402587:	48 b8 72 65 73 6f 6c 	movabs $0x2065766c6f736572,%rax
  40258e:	76 65 20 
  402591:	48 89 43 18          	mov    %rax,0x18(%rbx)
  402595:	48 b8 41 75 74 6f 6c 	movabs $0x2062616c6f747541,%rax
  40259c:	61 62 20 
  40259f:	48 89 43 20          	mov    %rax,0x20(%rbx)
  4025a3:	48 b8 73 65 72 76 65 	movabs $0x6120726576726573,%rax
  4025aa:	72 20 61 
  4025ad:	48 89 43 28          	mov    %rax,0x28(%rbx)
  4025b1:	c7 43 30 64 64 72 65 	movl   $0x65726464,0x30(%rbx)
  4025b8:	66 c7 43 34 73 73    	movw   $0x7373,0x34(%rbx)
  4025be:	c6 43 36 00          	movb   $0x0,0x36(%rbx)
  4025c2:	89 ef                	mov    %ebp,%edi
  4025c4:	e8 87 e7 ff ff       	callq  400d50 <close@plt>
  4025c9:	b8 ff ff ff ff       	mov    $0xffffffff,%eax
  4025ce:	e9 2f 06 00 00       	jmpq   402c02 <submitr+0x761>
  4025d3:	48 c7 44 24 20 00 00 	movq   $0x0,0x20(%rsp)
  4025da:	00 00 
  4025dc:	48 c7 44 24 28 00 00 	movq   $0x0,0x28(%rsp)
  4025e3:	00 00 
  4025e5:	66 c7 44 24 20 02 00 	movw   $0x2,0x20(%rsp)
  4025ec:	48 63 50 14          	movslq 0x14(%rax),%rdx
  4025f0:	48 8b 40 18          	mov    0x18(%rax),%rax
  4025f4:	48 8b 30             	mov    (%rax),%rsi
  4025f7:	48 8d 7c 24 24       	lea    0x24(%rsp),%rdi
  4025fc:	b9 0c 00 00 00       	mov    $0xc,%ecx
  402601:	e8 9a e7 ff ff       	callq  400da0 <__memmove_chk@plt>
  402606:	0f b7 44 24 0c       	movzwl 0xc(%rsp),%eax
  40260b:	66 c1 c8 08          	ror    $0x8,%ax
  40260f:	66 89 44 24 22       	mov    %ax,0x22(%rsp)
  402614:	ba 10 00 00 00       	mov    $0x10,%edx
  402619:	48 8d 74 24 20       	lea    0x20(%rsp),%rsi
  40261e:	89 ef                	mov    %ebp,%edi
  402620:	e8 5b e8 ff ff       	callq  400e80 <connect@plt>
  402625:	85 c0                	test   %eax,%eax
  402627:	79 67                	jns    402690 <submitr+0x1ef>
  402629:	48 b8 45 72 72 6f 72 	movabs $0x55203a726f727245,%rax
  402630:	3a 20 55 
  402633:	48 89 03             	mov    %rax,(%rbx)
  402636:	48 b8 6e 61 62 6c 65 	movabs $0x6f7420656c62616e,%rax
  40263d:	20 74 6f 
  402640:	48 89 43 08          	mov    %rax,0x8(%rbx)
  402644:	48 b8 20 63 6f 6e 6e 	movabs $0x7463656e6e6f6320,%rax
  40264b:	65 63 74 
  40264e:	48 89 43 10          	mov    %rax,0x10(%rbx)
  402652:	48 b8 20 74 6f 20 74 	movabs $0x20656874206f7420,%rax
  402659:	68 65 20 
  40265c:	48 89 43 18          	mov    %rax,0x18(%rbx)
  402660:	48 b8 41 75 74 6f 6c 	movabs $0x2062616c6f747541,%rax
  402667:	61 62 20 
  40266a:	48 89 43 20          	mov    %rax,0x20(%rbx)
  40266e:	c7 43 28 73 65 72 76 	movl   $0x76726573,0x28(%rbx)
  402675:	66 c7 43 2c 65 72    	movw   $0x7265,0x2c(%rbx)
  40267b:	c6 43 2e 00          	movb   $0x0,0x2e(%rbx)
  40267f:	89 ef                	mov    %ebp,%edi
  402681:	e8 ca e6 ff ff       	callq  400d50 <close@plt>
  402686:	b8 ff ff ff ff       	mov    $0xffffffff,%eax
  40268b:	e9 72 05 00 00       	jmpq   402c02 <submitr+0x761>
  402690:	48 c7 c6 ff ff ff ff 	mov    $0xffffffffffffffff,%rsi
  402697:	b8 00 00 00 00       	mov    $0x0,%eax
  40269c:	48 89 f1             	mov    %rsi,%rcx
  40269f:	4c 89 e7             	mov    %r12,%rdi
  4026a2:	f2 ae                	repnz scas %es:(%rdi),%al
  4026a4:	48 f7 d1             	not    %rcx
  4026a7:	48 89 ca             	mov    %rcx,%rdx
  4026aa:	48 89 f1             	mov    %rsi,%rcx
  4026ad:	48 8b 3c 24          	mov    (%rsp),%rdi
  4026b1:	f2 ae                	repnz scas %es:(%rdi),%al
  4026b3:	48 f7 d1             	not    %rcx
  4026b6:	49 89 c8             	mov    %rcx,%r8
  4026b9:	48 89 f1             	mov    %rsi,%rcx
  4026bc:	4c 89 f7             	mov    %r14,%rdi
  4026bf:	f2 ae                	repnz scas %es:(%rdi),%al
  4026c1:	48 f7 d1             	not    %rcx
  4026c4:	4d 8d 44 08 fe       	lea    -0x2(%r8,%rcx,1),%r8
  4026c9:	48 89 f1             	mov    %rsi,%rcx
  4026cc:	4c 89 ff             	mov    %r15,%rdi
  4026cf:	f2 ae                	repnz scas %es:(%rdi),%al
  4026d1:	48 89 c8             	mov    %rcx,%rax
  4026d4:	48 f7 d0             	not    %rax
  4026d7:	49 8d 4c 00 ff       	lea    -0x1(%r8,%rax,1),%rcx
  4026dc:	48 8d 44 52 fd       	lea    -0x3(%rdx,%rdx,2),%rax
  4026e1:	48 8d 84 01 80 00 00 	lea    0x80(%rcx,%rax,1),%rax
  4026e8:	00 
  4026e9:	48 3d 00 20 00 00    	cmp    $0x2000,%rax
  4026ef:	76 72                	jbe    402763 <submitr+0x2c2>
  4026f1:	48 b8 45 72 72 6f 72 	movabs $0x52203a726f727245,%rax
  4026f8:	3a 20 52 
  4026fb:	48 89 03             	mov    %rax,(%rbx)
  4026fe:	48 b8 65 73 75 6c 74 	movabs $0x747320746c757365,%rax
  402705:	20 73 74 
  402708:	48 89 43 08          	mov    %rax,0x8(%rbx)
  40270c:	48 b8 72 69 6e 67 20 	movabs $0x6f6f7420676e6972,%rax
  402713:	74 6f 6f 
  402716:	48 89 43 10          	mov    %rax,0x10(%rbx)
  40271a:	48 b8 20 6c 61 72 67 	movabs $0x202e656772616c20,%rax
  402721:	65 2e 20 
  402724:	48 89 43 18          	mov    %rax,0x18(%rbx)
  402728:	48 b8 49 6e 63 72 65 	movabs $0x6573616572636e49,%rax
  40272f:	61 73 65 
  402732:	48 89 43 20          	mov    %rax,0x20(%rbx)
  402736:	48 b8 20 53 55 42 4d 	movabs $0x5254494d42555320,%rax
  40273d:	49 54 52 
  402740:	48 89 43 28          	mov    %rax,0x28(%rbx)
  402744:	48 b8 5f 4d 41 58 42 	movabs $0x46554258414d5f,%rax
  40274b:	55 46 00 
  40274e:	48 89 43 30          	mov    %rax,0x30(%rbx)
  402752:	89 ef                	mov    %ebp,%edi
  402754:	e8 f7 e5 ff ff       	callq  400d50 <close@plt>
  402759:	b8 ff ff ff ff       	mov    $0xffffffff,%eax
  40275e:	e9 9f 04 00 00       	jmpq   402c02 <submitr+0x761>
  402763:	48 8d b4 24 40 40 00 	lea    0x4040(%rsp),%rsi
  40276a:	00 
  40276b:	b9 00 04 00 00       	mov    $0x400,%ecx
  402770:	b8 00 00 00 00       	mov    $0x0,%eax
  402775:	48 89 f7             	mov    %rsi,%rdi
  402778:	f3 48 ab             	rep stos %rax,%es:(%rdi)
  40277b:	4c 89 e7             	mov    %r12,%rdi
  40277e:	e8 11 fc ff ff       	callq  402394 <urlencode>
  402783:	85 c0                	test   %eax,%eax
  402785:	0f 89 8a 00 00 00    	jns    402815 <submitr+0x374>
  40278b:	48 b8 45 72 72 6f 72 	movabs $0x52203a726f727245,%rax
  402792:	3a 20 52 
  402795:	48 89 03             	mov    %rax,(%rbx)
  402798:	48 b8 65 73 75 6c 74 	movabs $0x747320746c757365,%rax
  40279f:	20 73 74 
  4027a2:	48 89 43 08          	mov    %rax,0x8(%rbx)
  4027a6:	48 b8 72 69 6e 67 20 	movabs $0x6e6f6320676e6972,%rax
  4027ad:	63 6f 6e 
  4027b0:	48 89 43 10          	mov    %rax,0x10(%rbx)
  4027b4:	48 b8 74 61 69 6e 73 	movabs $0x6e6120736e696174,%rax
  4027bb:	20 61 6e 
  4027be:	48 89 43 18          	mov    %rax,0x18(%rbx)
  4027c2:	48 b8 20 69 6c 6c 65 	movabs $0x6c6167656c6c6920,%rax
  4027c9:	67 61 6c 
  4027cc:	48 89 43 20          	mov    %rax,0x20(%rbx)
  4027d0:	48 b8 20 6f 72 20 75 	movabs $0x72706e7520726f20,%rax
  4027d7:	6e 70 72 
  4027da:	48 89 43 28          	mov    %rax,0x28(%rbx)
  4027de:	48 b8 69 6e 74 61 62 	movabs $0x20656c6261746e69,%rax
  4027e5:	6c 65 20 
  4027e8:	48 89 43 30          	mov    %rax,0x30(%rbx)
  4027ec:	48 b8 63 68 61 72 61 	movabs $0x6574636172616863,%rax
  4027f3:	63 74 65 
  4027f6:	48 89 43 38          	mov    %rax,0x38(%rbx)
  4027fa:	66 c7 43 40 72 2e    	movw   $0x2e72,0x40(%rbx)
  402800:	c6 43 42 00          	movb   $0x0,0x42(%rbx)
  402804:	89 ef                	mov    %ebp,%edi
  402806:	e8 45 e5 ff ff       	callq  400d50 <close@plt>
  40280b:	b8 ff ff ff ff       	mov    $0xffffffff,%eax
  402810:	e9 ed 03 00 00       	jmpq   402c02 <submitr+0x761>
  402815:	4c 8d a4 24 40 20 00 	lea    0x2040(%rsp),%r12
  40281c:	00 
  40281d:	48 83 ec 08          	sub    $0x8,%rsp
  402821:	41 55                	push   %r13
  402823:	48 8d 84 24 50 40 00 	lea    0x4050(%rsp),%rax
  40282a:	00 
  40282b:	50                   	push   %rax
  40282c:	41 56                	push   %r14
  40282e:	4d 89 f9             	mov    %r15,%r9
  402831:	4c 8b 44 24 20       	mov    0x20(%rsp),%r8
  402836:	b9 88 37 40 00       	mov    $0x403788,%ecx
  40283b:	ba 00 20 00 00       	mov    $0x2000,%edx
  402840:	be 01 00 00 00       	mov    $0x1,%esi
  402845:	4c 89 e7             	mov    %r12,%rdi
  402848:	b8 00 00 00 00       	mov    $0x0,%eax
  40284d:	e8 4e e6 ff ff       	callq  400ea0 <__sprintf_chk@plt>
  402852:	b8 00 00 00 00       	mov    $0x0,%eax
  402857:	48 c7 c1 ff ff ff ff 	mov    $0xffffffffffffffff,%rcx
  40285e:	4c 89 e7             	mov    %r12,%rdi
  402861:	f2 ae                	repnz scas %es:(%rdi),%al
  402863:	48 f7 d1             	not    %rcx
  402866:	48 8d 51 ff          	lea    -0x1(%rcx),%rdx
  40286a:	48 83 c4 20          	add    $0x20,%rsp
  40286e:	4c 89 e6             	mov    %r12,%rsi
  402871:	89 ef                	mov    %ebp,%edi
  402873:	e8 8b f9 ff ff       	callq  402203 <rio_writen>
  402878:	48 85 c0             	test   %rax,%rax
  40287b:	79 6b                	jns    4028e8 <submitr+0x447>
  40287d:	48 b8 45 72 72 6f 72 	movabs $0x43203a726f727245,%rax
  402884:	3a 20 43 
  402887:	48 89 03             	mov    %rax,(%rbx)
  40288a:	48 b8 6c 69 65 6e 74 	movabs $0x6e7520746e65696c,%rax
  402891:	20 75 6e 
  402894:	48 89 43 08          	mov    %rax,0x8(%rbx)
  402898:	48 b8 61 62 6c 65 20 	movabs $0x206f7420656c6261,%rax
  40289f:	74 6f 20 
  4028a2:	48 89 43 10          	mov    %rax,0x10(%rbx)
  4028a6:	48 b8 77 72 69 74 65 	movabs $0x6f74206574697277,%rax
  4028ad:	20 74 6f 
  4028b0:	48 89 43 18          	mov    %rax,0x18(%rbx)
  4028b4:	48 b8 20 74 68 65 20 	movabs $0x7475412065687420,%rax
  4028bb:	41 75 74 
  4028be:	48 89 43 20          	mov    %rax,0x20(%rbx)
  4028c2:	48 b8 6f 6c 61 62 20 	movabs $0x7265732062616c6f,%rax
  4028c9:	73 65 72 
  4028cc:	48 89 43 28          	mov    %rax,0x28(%rbx)
  4028d0:	c7 43 30 76 65 72 00 	movl   $0x726576,0x30(%rbx)
  4028d7:	89 ef                	mov    %ebp,%edi
  4028d9:	e8 72 e4 ff ff       	callq  400d50 <close@plt>
  4028de:	b8 ff ff ff ff       	mov    $0xffffffff,%eax
  4028e3:	e9 1a 03 00 00       	jmpq   402c02 <submitr+0x761>
  4028e8:	89 ee                	mov    %ebp,%esi
  4028ea:	48 8d 7c 24 30       	lea    0x30(%rsp),%rdi
  4028ef:	e8 cf f8 ff ff       	callq  4021c3 <rio_readinitb>
  4028f4:	ba 00 20 00 00       	mov    $0x2000,%edx
  4028f9:	48 8d b4 24 40 20 00 	lea    0x2040(%rsp),%rsi
  402900:	00 
  402901:	48 8d 7c 24 30       	lea    0x30(%rsp),%rdi
  402906:	e8 df f9 ff ff       	callq  4022ea <rio_readlineb>
  40290b:	48 85 c0             	test   %rax,%rax
  40290e:	7f 7f                	jg     40298f <submitr+0x4ee>
  402910:	48 b8 45 72 72 6f 72 	movabs $0x43203a726f727245,%rax
  402917:	3a 20 43 
  40291a:	48 89 03             	mov    %rax,(%rbx)
  40291d:	48 b8 6c 69 65 6e 74 	movabs $0x6e7520746e65696c,%rax
  402924:	20 75 6e 
  402927:	48 89 43 08          	mov    %rax,0x8(%rbx)
  40292b:	48 b8 61 62 6c 65 20 	movabs $0x206f7420656c6261,%rax
  402932:	74 6f 20 
  402935:	48 89 43 10          	mov    %rax,0x10(%rbx)
  402939:	48 b8 72 65 61 64 20 	movabs $0x7269662064616572,%rax
  402940:	66 69 72 
  402943:	48 89 43 18          	mov    %rax,0x18(%rbx)
  402947:	48 b8 73 74 20 68 65 	movabs $0x6564616568207473,%rax
  40294e:	61 64 65 
  402951:	48 89 43 20          	mov    %rax,0x20(%rbx)
  402955:	48 b8 72 20 66 72 6f 	movabs $0x41206d6f72662072,%rax
  40295c:	6d 20 41 
  40295f:	48 89 43 28          	mov    %rax,0x28(%rbx)
  402963:	48 b8 75 74 6f 6c 61 	movabs $0x732062616c6f7475,%rax
  40296a:	62 20 73 
  40296d:	48 89 43 30          	mov    %rax,0x30(%rbx)
  402971:	c7 43 38 65 72 76 65 	movl   $0x65767265,0x38(%rbx)
  402978:	66 c7 43 3c 72 00    	movw   $0x72,0x3c(%rbx)
  40297e:	89 ef                	mov    %ebp,%edi
  402980:	e8 cb e3 ff ff       	callq  400d50 <close@plt>
  402985:	b8 ff ff ff ff       	mov    $0xffffffff,%eax
  40298a:	e9 73 02 00 00       	jmpq   402c02 <submitr+0x761>
  40298f:	4c 8d 84 24 40 80 00 	lea    0x8040(%rsp),%r8
  402996:	00 
  402997:	48 8d 4c 24 1c       	lea    0x1c(%rsp),%rcx
  40299c:	48 8d 94 24 40 60 00 	lea    0x6040(%rsp),%rdx
  4029a3:	00 
  4029a4:	be 1f 38 40 00       	mov    $0x40381f,%esi
  4029a9:	48 8d bc 24 40 20 00 	lea    0x2040(%rsp),%rdi
  4029b0:	00 
  4029b1:	b8 00 00 00 00       	mov    $0x0,%eax
  4029b6:	e8 45 e4 ff ff       	callq  400e00 <__isoc99_sscanf@plt>
  4029bb:	e9 92 00 00 00       	jmpq   402a52 <submitr+0x5b1>
  4029c0:	ba 00 20 00 00       	mov    $0x2000,%edx
  4029c5:	48 8d b4 24 40 20 00 	lea    0x2040(%rsp),%rsi
  4029cc:	00 
  4029cd:	48 8d 7c 24 30       	lea    0x30(%rsp),%rdi
  4029d2:	e8 13 f9 ff ff       	callq  4022ea <rio_readlineb>
  4029d7:	48 85 c0             	test   %rax,%rax
  4029da:	7f 76                	jg     402a52 <submitr+0x5b1>
  4029dc:	48 b8 45 72 72 6f 72 	movabs $0x43203a726f727245,%rax
  4029e3:	3a 20 43 
  4029e6:	48 89 03             	mov    %rax,(%rbx)
  4029e9:	48 b8 6c 69 65 6e 74 	movabs $0x6e7520746e65696c,%rax
  4029f0:	20 75 6e 
  4029f3:	48 89 43 08          	mov    %rax,0x8(%rbx)
  4029f7:	48 b8 61 62 6c 65 20 	movabs $0x206f7420656c6261,%rax
  4029fe:	74 6f 20 
  402a01:	48 89 43 10          	mov    %rax,0x10(%rbx)
  402a05:	48 b8 72 65 61 64 20 	movabs $0x6165682064616572,%rax
  402a0c:	68 65 61 
  402a0f:	48 89 43 18          	mov    %rax,0x18(%rbx)
  402a13:	48 b8 64 65 72 73 20 	movabs $0x6f72662073726564,%rax
  402a1a:	66 72 6f 
  402a1d:	48 89 43 20          	mov    %rax,0x20(%rbx)
  402a21:	48 b8 6d 20 41 75 74 	movabs $0x616c6f747541206d,%rax
  402a28:	6f 6c 61 
  402a2b:	48 89 43 28          	mov    %rax,0x28(%rbx)
  402a2f:	48 b8 62 20 73 65 72 	movabs $0x7265767265732062,%rax
  402a36:	76 65 72 
  402a39:	48 89 43 30          	mov    %rax,0x30(%rbx)
  402a3d:	c6 43 38 00          	movb   $0x0,0x38(%rbx)
  402a41:	89 ef                	mov    %ebp,%edi
  402a43:	e8 08 e3 ff ff       	callq  400d50 <close@plt>
  402a48:	b8 ff ff ff ff       	mov    $0xffffffff,%eax
  402a4d:	e9 b0 01 00 00       	jmpq   402c02 <submitr+0x761>
  402a52:	0f b6 94 24 40 20 00 	movzbl 0x2040(%rsp),%edx
  402a59:	00 
  402a5a:	b8 0d 00 00 00       	mov    $0xd,%eax
  402a5f:	29 d0                	sub    %edx,%eax
  402a61:	75 1b                	jne    402a7e <submitr+0x5dd>
  402a63:	0f b6 94 24 41 20 00 	movzbl 0x2041(%rsp),%edx
  402a6a:	00 
  402a6b:	b8 0a 00 00 00       	mov    $0xa,%eax
  402a70:	29 d0                	sub    %edx,%eax
  402a72:	75 0a                	jne    402a7e <submitr+0x5dd>
  402a74:	0f b6 84 24 42 20 00 	movzbl 0x2042(%rsp),%eax
  402a7b:	00 
  402a7c:	f7 d8                	neg    %eax
  402a7e:	85 c0                	test   %eax,%eax
  402a80:	0f 85 3a ff ff ff    	jne    4029c0 <submitr+0x51f>
  402a86:	ba 00 20 00 00       	mov    $0x2000,%edx
  402a8b:	48 8d b4 24 40 20 00 	lea    0x2040(%rsp),%rsi
  402a92:	00 
  402a93:	48 8d 7c 24 30       	lea    0x30(%rsp),%rdi
  402a98:	e8 4d f8 ff ff       	callq  4022ea <rio_readlineb>
  402a9d:	48 85 c0             	test   %rax,%rax
  402aa0:	0f 8f 80 00 00 00    	jg     402b26 <submitr+0x685>
  402aa6:	48 b8 45 72 72 6f 72 	movabs $0x43203a726f727245,%rax
  402aad:	3a 20 43 
  402ab0:	48 89 03             	mov    %rax,(%rbx)
  402ab3:	48 b8 6c 69 65 6e 74 	movabs $0x6e7520746e65696c,%rax
  402aba:	20 75 6e 
  402abd:	48 89 43 08          	mov    %rax,0x8(%rbx)
  402ac1:	48 b8 61 62 6c 65 20 	movabs $0x206f7420656c6261,%rax
  402ac8:	74 6f 20 
  402acb:	48 89 43 10          	mov    %rax,0x10(%rbx)
  402acf:	48 b8 72 65 61 64 20 	movabs $0x6174732064616572,%rax
  402ad6:	73 74 61 
  402ad9:	48 89 43 18          	mov    %rax,0x18(%rbx)
  402add:	48 b8 74 75 73 20 6d 	movabs $0x7373656d20737574,%rax
  402ae4:	65 73 73 
  402ae7:	48 89 43 20          	mov    %rax,0x20(%rbx)
  402aeb:	48 b8 61 67 65 20 66 	movabs $0x6d6f726620656761,%rax
  402af2:	72 6f 6d 
  402af5:	48 89 43 28          	mov    %rax,0x28(%rbx)
  402af9:	48 b8 20 41 75 74 6f 	movabs $0x62616c6f74754120,%rax
  402b00:	6c 61 62 
  402b03:	48 89 43 30          	mov    %rax,0x30(%rbx)
  402b07:	48 b8 20 73 65 72 76 	movabs $0x72657672657320,%rax
  402b0e:	65 72 00 
  402b11:	48 89 43 38          	mov    %rax,0x38(%rbx)
  402b15:	89 ef                	mov    %ebp,%edi
  402b17:	e8 34 e2 ff ff       	callq  400d50 <close@plt>
  402b1c:	b8 ff ff ff ff       	mov    $0xffffffff,%eax
  402b21:	e9 dc 00 00 00       	jmpq   402c02 <submitr+0x761>
  402b26:	44 8b 44 24 1c       	mov    0x1c(%rsp),%r8d
  402b2b:	41 81 f8 c8 00 00 00 	cmp    $0xc8,%r8d
  402b32:	74 37                	je     402b6b <submitr+0x6ca>
  402b34:	4c 8d 8c 24 40 80 00 	lea    0x8040(%rsp),%r9
  402b3b:	00 
  402b3c:	b9 e8 37 40 00       	mov    $0x4037e8,%ecx
  402b41:	48 c7 c2 ff ff ff ff 	mov    $0xffffffffffffffff,%rdx
  402b48:	be 01 00 00 00       	mov    $0x1,%esi
  402b4d:	48 89 df             	mov    %rbx,%rdi
  402b50:	b8 00 00 00 00       	mov    $0x0,%eax
  402b55:	e8 46 e3 ff ff       	callq  400ea0 <__sprintf_chk@plt>
  402b5a:	89 ef                	mov    %ebp,%edi
  402b5c:	e8 ef e1 ff ff       	callq  400d50 <close@plt>
  402b61:	b8 ff ff ff ff       	mov    $0xffffffff,%eax
  402b66:	e9 97 00 00 00       	jmpq   402c02 <submitr+0x761>
  402b6b:	48 8d b4 24 40 20 00 	lea    0x2040(%rsp),%rsi
  402b72:	00 
  402b73:	48 89 df             	mov    %rbx,%rdi
  402b76:	e8 65 e1 ff ff       	callq  400ce0 <strcpy@plt>
  402b7b:	89 ef                	mov    %ebp,%edi
  402b7d:	e8 ce e1 ff ff       	callq  400d50 <close@plt>
  402b82:	0f b6 03             	movzbl (%rbx),%eax
  402b85:	ba 4f 00 00 00       	mov    $0x4f,%edx
  402b8a:	29 c2                	sub    %eax,%edx
  402b8c:	75 22                	jne    402bb0 <submitr+0x70f>
  402b8e:	0f b6 4b 01          	movzbl 0x1(%rbx),%ecx
  402b92:	b8 4b 00 00 00       	mov    $0x4b,%eax
  402b97:	29 c8                	sub    %ecx,%eax
  402b99:	75 17                	jne    402bb2 <submitr+0x711>
  402b9b:	0f b6 4b 02          	movzbl 0x2(%rbx),%ecx
  402b9f:	b8 0a 00 00 00       	mov    $0xa,%eax
  402ba4:	29 c8                	sub    %ecx,%eax
  402ba6:	75 0a                	jne    402bb2 <submitr+0x711>
  402ba8:	0f b6 43 03          	movzbl 0x3(%rbx),%eax
  402bac:	f7 d8                	neg    %eax
  402bae:	eb 02                	jmp    402bb2 <submitr+0x711>
  402bb0:	89 d0                	mov    %edx,%eax
  402bb2:	85 c0                	test   %eax,%eax
  402bb4:	74 40                	je     402bf6 <submitr+0x755>
  402bb6:	bf 30 38 40 00       	mov    $0x403830,%edi
  402bbb:	b9 05 00 00 00       	mov    $0x5,%ecx
  402bc0:	48 89 de             	mov    %rbx,%rsi
  402bc3:	f3 a6                	repz cmpsb %es:(%rdi),%ds:(%rsi)
  402bc5:	0f 97 c0             	seta   %al
  402bc8:	0f 92 c1             	setb   %cl
  402bcb:	29 c8                	sub    %ecx,%eax
  402bcd:	0f be c0             	movsbl %al,%eax
  402bd0:	85 c0                	test   %eax,%eax
  402bd2:	74 2e                	je     402c02 <submitr+0x761>
  402bd4:	85 d2                	test   %edx,%edx
  402bd6:	75 13                	jne    402beb <submitr+0x74a>
  402bd8:	0f b6 43 01          	movzbl 0x1(%rbx),%eax
  402bdc:	ba 4b 00 00 00       	mov    $0x4b,%edx
  402be1:	29 c2                	sub    %eax,%edx
  402be3:	75 06                	jne    402beb <submitr+0x74a>
  402be5:	0f b6 53 02          	movzbl 0x2(%rbx),%edx
  402be9:	f7 da                	neg    %edx
  402beb:	85 d2                	test   %edx,%edx
  402bed:	75 0e                	jne    402bfd <submitr+0x75c>
  402bef:	b8 00 00 00 00       	mov    $0x0,%eax
  402bf4:	eb 0c                	jmp    402c02 <submitr+0x761>
  402bf6:	b8 00 00 00 00       	mov    $0x0,%eax
  402bfb:	eb 05                	jmp    402c02 <submitr+0x761>
  402bfd:	b8 ff ff ff ff       	mov    $0xffffffff,%eax
  402c02:	48 8b 9c 24 48 a0 00 	mov    0xa048(%rsp),%rbx
  402c09:	00 
  402c0a:	64 48 33 1c 25 28 00 	xor    %fs:0x28,%rbx
  402c11:	00 00 
  402c13:	74 05                	je     402c1a <submitr+0x779>
  402c15:	e8 f6 e0 ff ff       	callq  400d10 <__stack_chk_fail@plt>
  402c1a:	48 81 c4 58 a0 00 00 	add    $0xa058,%rsp
  402c21:	5b                   	pop    %rbx
  402c22:	5d                   	pop    %rbp
  402c23:	41 5c                	pop    %r12
  402c25:	41 5d                	pop    %r13
  402c27:	41 5e                	pop    %r14
  402c29:	41 5f                	pop    %r15
  402c2b:	c3                   	retq   

0000000000402c2c <init_timeout>:
  402c2c:	85 ff                	test   %edi,%edi
  402c2e:	74 23                	je     402c53 <init_timeout+0x27>
  402c30:	53                   	push   %rbx
  402c31:	89 fb                	mov    %edi,%ebx
  402c33:	85 ff                	test   %edi,%edi
  402c35:	79 05                	jns    402c3c <init_timeout+0x10>
  402c37:	bb 00 00 00 00       	mov    $0x0,%ebx
  402c3c:	be d5 21 40 00       	mov    $0x4021d5,%esi
  402c41:	bf 0e 00 00 00       	mov    $0xe,%edi
  402c46:	e8 35 e1 ff ff       	callq  400d80 <signal@plt>
  402c4b:	89 df                	mov    %ebx,%edi
  402c4d:	e8 ee e0 ff ff       	callq  400d40 <alarm@plt>
  402c52:	5b                   	pop    %rbx
  402c53:	f3 c3                	repz retq 

0000000000402c55 <init_driver>:
  402c55:	55                   	push   %rbp
  402c56:	53                   	push   %rbx
  402c57:	48 83 ec 28          	sub    $0x28,%rsp
  402c5b:	48 89 fd             	mov    %rdi,%rbp
  402c5e:	64 48 8b 04 25 28 00 	mov    %fs:0x28,%rax
  402c65:	00 00 
  402c67:	48 89 44 24 18       	mov    %rax,0x18(%rsp)
  402c6c:	31 c0                	xor    %eax,%eax
  402c6e:	be 01 00 00 00       	mov    $0x1,%esi
  402c73:	bf 0d 00 00 00       	mov    $0xd,%edi
  402c78:	e8 03 e1 ff ff       	callq  400d80 <signal@plt>
  402c7d:	be 01 00 00 00       	mov    $0x1,%esi
  402c82:	bf 1d 00 00 00       	mov    $0x1d,%edi
  402c87:	e8 f4 e0 ff ff       	callq  400d80 <signal@plt>
  402c8c:	be 01 00 00 00       	mov    $0x1,%esi
  402c91:	bf 1d 00 00 00       	mov    $0x1d,%edi
  402c96:	e8 e5 e0 ff ff       	callq  400d80 <signal@plt>
  402c9b:	ba 00 00 00 00       	mov    $0x0,%edx
  402ca0:	be 01 00 00 00       	mov    $0x1,%esi
  402ca5:	bf 02 00 00 00       	mov    $0x2,%edi
  402caa:	e8 01 e2 ff ff       	callq  400eb0 <socket@plt>
  402caf:	85 c0                	test   %eax,%eax
  402cb1:	79 4f                	jns    402d02 <init_driver+0xad>
  402cb3:	48 b8 45 72 72 6f 72 	movabs $0x43203a726f727245,%rax
  402cba:	3a 20 43 
  402cbd:	48 89 45 00          	mov    %rax,0x0(%rbp)
  402cc1:	48 b8 6c 69 65 6e 74 	movabs $0x6e7520746e65696c,%rax
  402cc8:	20 75 6e 
  402ccb:	48 89 45 08          	mov    %rax,0x8(%rbp)
  402ccf:	48 b8 61 62 6c 65 20 	movabs $0x206f7420656c6261,%rax
  402cd6:	74 6f 20 
  402cd9:	48 89 45 10          	mov    %rax,0x10(%rbp)
  402cdd:	48 b8 63 72 65 61 74 	movabs $0x7320657461657263,%rax
  402ce4:	65 20 73 
  402ce7:	48 89 45 18          	mov    %rax,0x18(%rbp)
  402ceb:	c7 45 20 6f 63 6b 65 	movl   $0x656b636f,0x20(%rbp)
  402cf2:	66 c7 45 24 74 00    	movw   $0x74,0x24(%rbp)
  402cf8:	b8 ff ff ff ff       	mov    $0xffffffff,%eax
  402cfd:	e9 2a 01 00 00       	jmpq   402e2c <init_driver+0x1d7>
  402d02:	89 c3                	mov    %eax,%ebx
  402d04:	bf 55 33 40 00       	mov    $0x403355,%edi
  402d09:	e8 82 e0 ff ff       	callq  400d90 <gethostbyname@plt>
  402d0e:	48 85 c0             	test   %rax,%rax
  402d11:	75 68                	jne    402d7b <init_driver+0x126>
  402d13:	48 b8 45 72 72 6f 72 	movabs $0x44203a726f727245,%rax
  402d1a:	3a 20 44 
  402d1d:	48 89 45 00          	mov    %rax,0x0(%rbp)
  402d21:	48 b8 4e 53 20 69 73 	movabs $0x6e7520736920534e,%rax
  402d28:	20 75 6e 
  402d2b:	48 89 45 08          	mov    %rax,0x8(%rbp)
  402d2f:	48 b8 61 62 6c 65 20 	movabs $0x206f7420656c6261,%rax
  402d36:	74 6f 20 
  402d39:	48 89 45 10          	mov    %rax,0x10(%rbp)
  402d3d:	48 b8 72 65 73 6f 6c 	movabs $0x2065766c6f736572,%rax
  402d44:	76 65 20 
  402d47:	48 89 45 18          	mov    %rax,0x18(%rbp)
  402d4b:	48 b8 73 65 72 76 65 	movabs $0x6120726576726573,%rax
  402d52:	72 20 61 
  402d55:	48 89 45 20          	mov    %rax,0x20(%rbp)
  402d59:	c7 45 28 64 64 72 65 	movl   $0x65726464,0x28(%rbp)
  402d60:	66 c7 45 2c 73 73    	movw   $0x7373,0x2c(%rbp)
  402d66:	c6 45 2e 00          	movb   $0x0,0x2e(%rbp)
  402d6a:	89 df                	mov    %ebx,%edi
  402d6c:	e8 df df ff ff       	callq  400d50 <close@plt>
  402d71:	b8 ff ff ff ff       	mov    $0xffffffff,%eax
  402d76:	e9 b1 00 00 00       	jmpq   402e2c <init_driver+0x1d7>
  402d7b:	48 c7 04 24 00 00 00 	movq   $0x0,(%rsp)
  402d82:	00 
  402d83:	48 c7 44 24 08 00 00 	movq   $0x0,0x8(%rsp)
  402d8a:	00 00 
  402d8c:	66 c7 04 24 02 00    	movw   $0x2,(%rsp)
  402d92:	48 63 50 14          	movslq 0x14(%rax),%rdx
  402d96:	48 8b 40 18          	mov    0x18(%rax),%rax
  402d9a:	48 8b 30             	mov    (%rax),%rsi
  402d9d:	48 8d 7c 24 04       	lea    0x4(%rsp),%rdi
  402da2:	b9 0c 00 00 00       	mov    $0xc,%ecx
  402da7:	e8 f4 df ff ff       	callq  400da0 <__memmove_chk@plt>
  402dac:	66 c7 44 24 02 00 50 	movw   $0x5000,0x2(%rsp)
  402db3:	ba 10 00 00 00       	mov    $0x10,%edx
  402db8:	48 89 e6             	mov    %rsp,%rsi
  402dbb:	89 df                	mov    %ebx,%edi
  402dbd:	e8 be e0 ff ff       	callq  400e80 <connect@plt>
  402dc2:	85 c0                	test   %eax,%eax
  402dc4:	79 50                	jns    402e16 <init_driver+0x1c1>
  402dc6:	48 b8 45 72 72 6f 72 	movabs $0x55203a726f727245,%rax
  402dcd:	3a 20 55 
  402dd0:	48 89 45 00          	mov    %rax,0x0(%rbp)
  402dd4:	48 b8 6e 61 62 6c 65 	movabs $0x6f7420656c62616e,%rax
  402ddb:	20 74 6f 
  402dde:	48 89 45 08          	mov    %rax,0x8(%rbp)
  402de2:	48 b8 20 63 6f 6e 6e 	movabs $0x7463656e6e6f6320,%rax
  402de9:	65 63 74 
  402dec:	48 89 45 10          	mov    %rax,0x10(%rbp)
  402df0:	48 b8 20 74 6f 20 73 	movabs $0x76726573206f7420,%rax
  402df7:	65 72 76 
  402dfa:	48 89 45 18          	mov    %rax,0x18(%rbp)
  402dfe:	66 c7 45 20 65 72    	movw   $0x7265,0x20(%rbp)
  402e04:	c6 45 22 00          	movb   $0x0,0x22(%rbp)
  402e08:	89 df                	mov    %ebx,%edi
  402e0a:	e8 41 df ff ff       	callq  400d50 <close@plt>
  402e0f:	b8 ff ff ff ff       	mov    $0xffffffff,%eax
  402e14:	eb 16                	jmp    402e2c <init_driver+0x1d7>
  402e16:	89 df                	mov    %ebx,%edi
  402e18:	e8 33 df ff ff       	callq  400d50 <close@plt>
  402e1d:	66 c7 45 00 4f 4b    	movw   $0x4b4f,0x0(%rbp)
  402e23:	c6 45 02 00          	movb   $0x0,0x2(%rbp)
  402e27:	b8 00 00 00 00       	mov    $0x0,%eax
  402e2c:	48 8b 4c 24 18       	mov    0x18(%rsp),%rcx
  402e31:	64 48 33 0c 25 28 00 	xor    %fs:0x28,%rcx
  402e38:	00 00 
  402e3a:	74 05                	je     402e41 <init_driver+0x1ec>
  402e3c:	e8 cf de ff ff       	callq  400d10 <__stack_chk_fail@plt>
  402e41:	48 83 c4 28          	add    $0x28,%rsp
  402e45:	5b                   	pop    %rbx
  402e46:	5d                   	pop    %rbp
  402e47:	c3                   	retq   

0000000000402e48 <driver_post>:
  402e48:	53                   	push   %rbx
  402e49:	4c 89 cb             	mov    %r9,%rbx
  402e4c:	45 85 c0             	test   %r8d,%r8d
  402e4f:	74 27                	je     402e78 <driver_post+0x30>
  402e51:	48 89 ca             	mov    %rcx,%rdx
  402e54:	be 35 38 40 00       	mov    $0x403835,%esi
  402e59:	bf 01 00 00 00       	mov    $0x1,%edi
  402e5e:	b8 00 00 00 00       	mov    $0x0,%eax
  402e63:	e8 b8 df ff ff       	callq  400e20 <__printf_chk@plt>
  402e68:	66 c7 03 4f 4b       	movw   $0x4b4f,(%rbx)
  402e6d:	c6 43 02 00          	movb   $0x0,0x2(%rbx)
  402e71:	b8 00 00 00 00       	mov    $0x0,%eax
  402e76:	eb 3f                	jmp    402eb7 <driver_post+0x6f>
  402e78:	48 85 ff             	test   %rdi,%rdi
  402e7b:	74 2c                	je     402ea9 <driver_post+0x61>
  402e7d:	80 3f 00             	cmpb   $0x0,(%rdi)
  402e80:	74 27                	je     402ea9 <driver_post+0x61>
  402e82:	48 83 ec 08          	sub    $0x8,%rsp
  402e86:	41 51                	push   %r9
  402e88:	49 89 c9             	mov    %rcx,%r9
  402e8b:	49 89 d0             	mov    %rdx,%r8
  402e8e:	48 89 f9             	mov    %rdi,%rcx
  402e91:	48 89 f2             	mov    %rsi,%rdx
  402e94:	be 50 00 00 00       	mov    $0x50,%esi
  402e99:	bf 55 33 40 00       	mov    $0x403355,%edi
  402e9e:	e8 fe f5 ff ff       	callq  4024a1 <submitr>
  402ea3:	48 83 c4 10          	add    $0x10,%rsp
  402ea7:	eb 0e                	jmp    402eb7 <driver_post+0x6f>
  402ea9:	66 c7 03 4f 4b       	movw   $0x4b4f,(%rbx)
  402eae:	c6 43 02 00          	movb   $0x0,0x2(%rbx)
  402eb2:	b8 00 00 00 00       	mov    $0x0,%eax
  402eb7:	5b                   	pop    %rbx
  402eb8:	c3                   	retq   

0000000000402eb9 <check>:
  402eb9:	89 f8                	mov    %edi,%eax
  402ebb:	c1 e8 1c             	shr    $0x1c,%eax
  402ebe:	85 c0                	test   %eax,%eax
  402ec0:	74 1d                	je     402edf <check+0x26>
  402ec2:	b9 00 00 00 00       	mov    $0x0,%ecx
  402ec7:	eb 0b                	jmp    402ed4 <check+0x1b>
  402ec9:	89 f8                	mov    %edi,%eax
  402ecb:	d3 e8                	shr    %cl,%eax
  402ecd:	3c 0a                	cmp    $0xa,%al
  402ecf:	74 14                	je     402ee5 <check+0x2c>
  402ed1:	83 c1 08             	add    $0x8,%ecx
  402ed4:	83 f9 1f             	cmp    $0x1f,%ecx
  402ed7:	7e f0                	jle    402ec9 <check+0x10>
  402ed9:	b8 01 00 00 00       	mov    $0x1,%eax
  402ede:	c3                   	retq   
  402edf:	b8 00 00 00 00       	mov    $0x0,%eax
  402ee4:	c3                   	retq   
  402ee5:	b8 00 00 00 00       	mov    $0x0,%eax
  402eea:	c3                   	retq   

0000000000402eeb <gencookie>:
  402eeb:	53                   	push   %rbx
  402eec:	83 c7 01             	add    $0x1,%edi
  402eef:	e8 cc dd ff ff       	callq  400cc0 <srandom@plt>
  402ef4:	e8 e7 de ff ff       	callq  400de0 <random@plt>
  402ef9:	89 c3                	mov    %eax,%ebx
  402efb:	89 c7                	mov    %eax,%edi
  402efd:	e8 b7 ff ff ff       	callq  402eb9 <check>
  402f02:	85 c0                	test   %eax,%eax
  402f04:	74 ee                	je     402ef4 <gencookie+0x9>
  402f06:	89 d8                	mov    %ebx,%eax
  402f08:	5b                   	pop    %rbx
  402f09:	c3                   	retq   
  402f0a:	66 0f 1f 44 00 00    	nopw   0x0(%rax,%rax,1)

0000000000402f10 <__libc_csu_init>:
  402f10:	41 57                	push   %r15
  402f12:	41 56                	push   %r14
  402f14:	41 89 ff             	mov    %edi,%r15d
  402f17:	41 55                	push   %r13
  402f19:	41 54                	push   %r12
  402f1b:	4c 8d 25 de 1e 20 00 	lea    0x201ede(%rip),%r12        # 604e00 <__frame_dummy_init_array_entry>
  402f22:	55                   	push   %rbp
  402f23:	48 8d 2d de 1e 20 00 	lea    0x201ede(%rip),%rbp        # 604e08 <__init_array_end>
  402f2a:	53                   	push   %rbx
  402f2b:	49 89 f6             	mov    %rsi,%r14
  402f2e:	49 89 d5             	mov    %rdx,%r13
  402f31:	4c 29 e5             	sub    %r12,%rbp
  402f34:	48 83 ec 08          	sub    $0x8,%rsp
  402f38:	48 c1 fd 03          	sar    $0x3,%rbp
  402f3c:	e8 27 dd ff ff       	callq  400c68 <_init>
  402f41:	48 85 ed             	test   %rbp,%rbp
  402f44:	74 20                	je     402f66 <__libc_csu_init+0x56>
  402f46:	31 db                	xor    %ebx,%ebx
  402f48:	0f 1f 84 00 00 00 00 	nopl   0x0(%rax,%rax,1)
  402f4f:	00 
  402f50:	4c 89 ea             	mov    %r13,%rdx
  402f53:	4c 89 f6             	mov    %r14,%rsi
  402f56:	44 89 ff             	mov    %r15d,%edi
  402f59:	41 ff 14 dc          	callq  *(%r12,%rbx,8)
  402f5d:	48 83 c3 01          	add    $0x1,%rbx
  402f61:	48 39 eb             	cmp    %rbp,%rbx
  402f64:	75 ea                	jne    402f50 <__libc_csu_init+0x40>
  402f66:	48 83 c4 08          	add    $0x8,%rsp
  402f6a:	5b                   	pop    %rbx
  402f6b:	5d                   	pop    %rbp
  402f6c:	41 5c                	pop    %r12
  402f6e:	41 5d                	pop    %r13
  402f70:	41 5e                	pop    %r14
  402f72:	41 5f                	pop    %r15
  402f74:	c3                   	retq   
  402f75:	90                   	nop
  402f76:	66 2e 0f 1f 84 00 00 	nopw   %cs:0x0(%rax,%rax,1)
  402f7d:	00 00 00 

0000000000402f80 <__libc_csu_fini>:
  402f80:	f3 c3                	repz retq 

Disassembly of section .fini:

0000000000402f84 <_fini>:
  402f84:	48 83 ec 08          	sub    $0x8,%rsp
  402f88:	48 83 c4 08          	add    $0x8,%rsp
  402f8c:	c3                   	retq   
