
rtarget：     文件格式 elf64-x86-64


Disassembly of section .init:

0000000000400c68 <_init>:
  400c68:	48 83 ec 08          	sub    $0x8,%rsp
  400c6c:	48 8b 05 85 43 20 00 	mov    0x204385(%rip),%rax        # 604ff8 <__gmon_start__>
  400c73:	48 85 c0             	test   %rax,%rax
  400c76:	74 05                	je     400c7d <_init+0x15>
  400c78:	e8 43 02 00 00       	callq  400ec0 <__gmon_start__@plt>
  400c7d:	48 83 c4 08          	add    $0x8,%rsp
  400c81:	c3                   	retq   

Disassembly of section .plt:

0000000000400c90 <.plt>:
  400c90:	ff 35 72 43 20 00    	pushq  0x204372(%rip)        # 605008 <_GLOBAL_OFFSET_TABLE_+0x8>
  400c96:	ff 25 74 43 20 00    	jmpq   *0x204374(%rip)        # 605010 <_GLOBAL_OFFSET_TABLE_+0x10>
  400c9c:	0f 1f 40 00          	nopl   0x0(%rax)

0000000000400ca0 <strcasecmp@plt>:
  400ca0:	ff 25 72 43 20 00    	jmpq   *0x204372(%rip)        # 605018 <strcasecmp@GLIBC_2.2.5>
  400ca6:	68 00 00 00 00       	pushq  $0x0
  400cab:	e9 e0 ff ff ff       	jmpq   400c90 <.plt>

0000000000400cb0 <__errno_location@plt>:
  400cb0:	ff 25 6a 43 20 00    	jmpq   *0x20436a(%rip)        # 605020 <__errno_location@GLIBC_2.2.5>
  400cb6:	68 01 00 00 00       	pushq  $0x1
  400cbb:	e9 d0 ff ff ff       	jmpq   400c90 <.plt>

0000000000400cc0 <srandom@plt>:
  400cc0:	ff 25 62 43 20 00    	jmpq   *0x204362(%rip)        # 605028 <srandom@GLIBC_2.2.5>
  400cc6:	68 02 00 00 00       	pushq  $0x2
  400ccb:	e9 c0 ff ff ff       	jmpq   400c90 <.plt>

0000000000400cd0 <strncmp@plt>:
  400cd0:	ff 25 5a 43 20 00    	jmpq   *0x20435a(%rip)        # 605030 <strncmp@GLIBC_2.2.5>
  400cd6:	68 03 00 00 00       	pushq  $0x3
  400cdb:	e9 b0 ff ff ff       	jmpq   400c90 <.plt>

0000000000400ce0 <strcpy@plt>:
  400ce0:	ff 25 52 43 20 00    	jmpq   *0x204352(%rip)        # 605038 <strcpy@GLIBC_2.2.5>
  400ce6:	68 04 00 00 00       	pushq  $0x4
  400ceb:	e9 a0 ff ff ff       	jmpq   400c90 <.plt>

0000000000400cf0 <puts@plt>:
  400cf0:	ff 25 4a 43 20 00    	jmpq   *0x20434a(%rip)        # 605040 <puts@GLIBC_2.2.5>
  400cf6:	68 05 00 00 00       	pushq  $0x5
  400cfb:	e9 90 ff ff ff       	jmpq   400c90 <.plt>

0000000000400d00 <write@plt>:
  400d00:	ff 25 42 43 20 00    	jmpq   *0x204342(%rip)        # 605048 <write@GLIBC_2.2.5>
  400d06:	68 06 00 00 00       	pushq  $0x6
  400d0b:	e9 80 ff ff ff       	jmpq   400c90 <.plt>

0000000000400d10 <__stack_chk_fail@plt>:
  400d10:	ff 25 3a 43 20 00    	jmpq   *0x20433a(%rip)        # 605050 <__stack_chk_fail@GLIBC_2.4>
  400d16:	68 07 00 00 00       	pushq  $0x7
  400d1b:	e9 70 ff ff ff       	jmpq   400c90 <.plt>

0000000000400d20 <mmap@plt>:
  400d20:	ff 25 32 43 20 00    	jmpq   *0x204332(%rip)        # 605058 <mmap@GLIBC_2.2.5>
  400d26:	68 08 00 00 00       	pushq  $0x8
  400d2b:	e9 60 ff ff ff       	jmpq   400c90 <.plt>

0000000000400d30 <memset@plt>:
  400d30:	ff 25 2a 43 20 00    	jmpq   *0x20432a(%rip)        # 605060 <memset@GLIBC_2.2.5>
  400d36:	68 09 00 00 00       	pushq  $0x9
  400d3b:	e9 50 ff ff ff       	jmpq   400c90 <.plt>

0000000000400d40 <alarm@plt>:
  400d40:	ff 25 22 43 20 00    	jmpq   *0x204322(%rip)        # 605068 <alarm@GLIBC_2.2.5>
  400d46:	68 0a 00 00 00       	pushq  $0xa
  400d4b:	e9 40 ff ff ff       	jmpq   400c90 <.plt>

0000000000400d50 <close@plt>:
  400d50:	ff 25 1a 43 20 00    	jmpq   *0x20431a(%rip)        # 605070 <close@GLIBC_2.2.5>
  400d56:	68 0b 00 00 00       	pushq  $0xb
  400d5b:	e9 30 ff ff ff       	jmpq   400c90 <.plt>

0000000000400d60 <read@plt>:
  400d60:	ff 25 12 43 20 00    	jmpq   *0x204312(%rip)        # 605078 <read@GLIBC_2.2.5>
  400d66:	68 0c 00 00 00       	pushq  $0xc
  400d6b:	e9 20 ff ff ff       	jmpq   400c90 <.plt>

0000000000400d70 <__libc_start_main@plt>:
  400d70:	ff 25 0a 43 20 00    	jmpq   *0x20430a(%rip)        # 605080 <__libc_start_main@GLIBC_2.2.5>
  400d76:	68 0d 00 00 00       	pushq  $0xd
  400d7b:	e9 10 ff ff ff       	jmpq   400c90 <.plt>

0000000000400d80 <signal@plt>:
  400d80:	ff 25 02 43 20 00    	jmpq   *0x204302(%rip)        # 605088 <signal@GLIBC_2.2.5>
  400d86:	68 0e 00 00 00       	pushq  $0xe
  400d8b:	e9 00 ff ff ff       	jmpq   400c90 <.plt>

0000000000400d90 <gethostbyname@plt>:
  400d90:	ff 25 fa 42 20 00    	jmpq   *0x2042fa(%rip)        # 605090 <gethostbyname@GLIBC_2.2.5>
  400d96:	68 0f 00 00 00       	pushq  $0xf
  400d9b:	e9 f0 fe ff ff       	jmpq   400c90 <.plt>

0000000000400da0 <__memmove_chk@plt>:
  400da0:	ff 25 f2 42 20 00    	jmpq   *0x2042f2(%rip)        # 605098 <__memmove_chk@GLIBC_2.3.4>
  400da6:	68 10 00 00 00       	pushq  $0x10
  400dab:	e9 e0 fe ff ff       	jmpq   400c90 <.plt>

0000000000400db0 <strtol@plt>:
  400db0:	ff 25 ea 42 20 00    	jmpq   *0x2042ea(%rip)        # 6050a0 <strtol@GLIBC_2.2.5>
  400db6:	68 11 00 00 00       	pushq  $0x11
  400dbb:	e9 d0 fe ff ff       	jmpq   400c90 <.plt>

0000000000400dc0 <memcpy@plt>:
  400dc0:	ff 25 e2 42 20 00    	jmpq   *0x2042e2(%rip)        # 6050a8 <memcpy@GLIBC_2.14>
  400dc6:	68 12 00 00 00       	pushq  $0x12
  400dcb:	e9 c0 fe ff ff       	jmpq   400c90 <.plt>

0000000000400dd0 <time@plt>:
  400dd0:	ff 25 da 42 20 00    	jmpq   *0x2042da(%rip)        # 6050b0 <time@GLIBC_2.2.5>
  400dd6:	68 13 00 00 00       	pushq  $0x13
  400ddb:	e9 b0 fe ff ff       	jmpq   400c90 <.plt>

0000000000400de0 <random@plt>:
  400de0:	ff 25 d2 42 20 00    	jmpq   *0x2042d2(%rip)        # 6050b8 <random@GLIBC_2.2.5>
  400de6:	68 14 00 00 00       	pushq  $0x14
  400deb:	e9 a0 fe ff ff       	jmpq   400c90 <.plt>

0000000000400df0 <_IO_getc@plt>:
  400df0:	ff 25 ca 42 20 00    	jmpq   *0x2042ca(%rip)        # 6050c0 <_IO_getc@GLIBC_2.2.5>
  400df6:	68 15 00 00 00       	pushq  $0x15
  400dfb:	e9 90 fe ff ff       	jmpq   400c90 <.plt>

0000000000400e00 <__isoc99_sscanf@plt>:
  400e00:	ff 25 c2 42 20 00    	jmpq   *0x2042c2(%rip)        # 6050c8 <__isoc99_sscanf@GLIBC_2.7>
  400e06:	68 16 00 00 00       	pushq  $0x16
  400e0b:	e9 80 fe ff ff       	jmpq   400c90 <.plt>

0000000000400e10 <munmap@plt>:
  400e10:	ff 25 ba 42 20 00    	jmpq   *0x2042ba(%rip)        # 6050d0 <munmap@GLIBC_2.2.5>
  400e16:	68 17 00 00 00       	pushq  $0x17
  400e1b:	e9 70 fe ff ff       	jmpq   400c90 <.plt>

0000000000400e20 <__printf_chk@plt>:
  400e20:	ff 25 b2 42 20 00    	jmpq   *0x2042b2(%rip)        # 6050d8 <__printf_chk@GLIBC_2.3.4>
  400e26:	68 18 00 00 00       	pushq  $0x18
  400e2b:	e9 60 fe ff ff       	jmpq   400c90 <.plt>

0000000000400e30 <fopen@plt>:
  400e30:	ff 25 aa 42 20 00    	jmpq   *0x2042aa(%rip)        # 6050e0 <fopen@GLIBC_2.2.5>
  400e36:	68 19 00 00 00       	pushq  $0x19
  400e3b:	e9 50 fe ff ff       	jmpq   400c90 <.plt>

0000000000400e40 <getopt@plt>:
  400e40:	ff 25 a2 42 20 00    	jmpq   *0x2042a2(%rip)        # 6050e8 <getopt@GLIBC_2.2.5>
  400e46:	68 1a 00 00 00       	pushq  $0x1a
  400e4b:	e9 40 fe ff ff       	jmpq   400c90 <.plt>

0000000000400e50 <strtoul@plt>:
  400e50:	ff 25 9a 42 20 00    	jmpq   *0x20429a(%rip)        # 6050f0 <strtoul@GLIBC_2.2.5>
  400e56:	68 1b 00 00 00       	pushq  $0x1b
  400e5b:	e9 30 fe ff ff       	jmpq   400c90 <.plt>

0000000000400e60 <gethostname@plt>:
  400e60:	ff 25 92 42 20 00    	jmpq   *0x204292(%rip)        # 6050f8 <gethostname@GLIBC_2.2.5>
  400e66:	68 1c 00 00 00       	pushq  $0x1c
  400e6b:	e9 20 fe ff ff       	jmpq   400c90 <.plt>

0000000000400e70 <exit@plt>:
  400e70:	ff 25 8a 42 20 00    	jmpq   *0x20428a(%rip)        # 605100 <exit@GLIBC_2.2.5>
  400e76:	68 1d 00 00 00       	pushq  $0x1d
  400e7b:	e9 10 fe ff ff       	jmpq   400c90 <.plt>

0000000000400e80 <connect@plt>:
  400e80:	ff 25 82 42 20 00    	jmpq   *0x204282(%rip)        # 605108 <connect@GLIBC_2.2.5>
  400e86:	68 1e 00 00 00       	pushq  $0x1e
  400e8b:	e9 00 fe ff ff       	jmpq   400c90 <.plt>

0000000000400e90 <__fprintf_chk@plt>:
  400e90:	ff 25 7a 42 20 00    	jmpq   *0x20427a(%rip)        # 605110 <__fprintf_chk@GLIBC_2.3.4>
  400e96:	68 1f 00 00 00       	pushq  $0x1f
  400e9b:	e9 f0 fd ff ff       	jmpq   400c90 <.plt>

0000000000400ea0 <__sprintf_chk@plt>:
  400ea0:	ff 25 72 42 20 00    	jmpq   *0x204272(%rip)        # 605118 <__sprintf_chk@GLIBC_2.3.4>
  400ea6:	68 20 00 00 00       	pushq  $0x20
  400eab:	e9 e0 fd ff ff       	jmpq   400c90 <.plt>

0000000000400eb0 <socket@plt>:
  400eb0:	ff 25 6a 42 20 00    	jmpq   *0x20426a(%rip)        # 605120 <socket@GLIBC_2.2.5>
  400eb6:	68 21 00 00 00       	pushq  $0x21
  400ebb:	e9 d0 fd ff ff       	jmpq   400c90 <.plt>

Disassembly of section .plt.got:

0000000000400ec0 <__gmon_start__@plt>:
  400ec0:	ff 25 32 41 20 00    	jmpq   *0x204132(%rip)        # 604ff8 <__gmon_start__>
  400ec6:	66 90                	xchg   %ax,%ax

Disassembly of section .text:

0000000000400ed0 <_start>:
  400ed0:	31 ed                	xor    %ebp,%ebp
  400ed2:	49 89 d1             	mov    %rdx,%r9
  400ed5:	5e                   	pop    %rsi
  400ed6:	48 89 e2             	mov    %rsp,%rdx
  400ed9:	48 83 e4 f0          	and    $0xfffffffffffffff0,%rsp
  400edd:	50                   	push   %rax
  400ede:	54                   	push   %rsp
  400edf:	49 c7 c0 a0 30 40 00 	mov    $0x4030a0,%r8
  400ee6:	48 c7 c1 30 30 40 00 	mov    $0x403030,%rcx
  400eed:	48 c7 c7 d5 11 40 00 	mov    $0x4011d5,%rdi
  400ef4:	e8 77 fe ff ff       	callq  400d70 <__libc_start_main@plt>
  400ef9:	f4                   	hlt    
  400efa:	66 0f 1f 44 00 00    	nopw   0x0(%rax,%rax,1)

0000000000400f00 <deregister_tm_clones>:
  400f00:	b8 b7 54 60 00       	mov    $0x6054b7,%eax
  400f05:	55                   	push   %rbp
  400f06:	48 2d b0 54 60 00    	sub    $0x6054b0,%rax
  400f0c:	48 83 f8 0e          	cmp    $0xe,%rax
  400f10:	48 89 e5             	mov    %rsp,%rbp
  400f13:	76 1b                	jbe    400f30 <deregister_tm_clones+0x30>
  400f15:	b8 00 00 00 00       	mov    $0x0,%eax
  400f1a:	48 85 c0             	test   %rax,%rax
  400f1d:	74 11                	je     400f30 <deregister_tm_clones+0x30>
  400f1f:	5d                   	pop    %rbp
  400f20:	bf b0 54 60 00       	mov    $0x6054b0,%edi
  400f25:	ff e0                	jmpq   *%rax
  400f27:	66 0f 1f 84 00 00 00 	nopw   0x0(%rax,%rax,1)
  400f2e:	00 00 
  400f30:	5d                   	pop    %rbp
  400f31:	c3                   	retq   
  400f32:	0f 1f 40 00          	nopl   0x0(%rax)
  400f36:	66 2e 0f 1f 84 00 00 	nopw   %cs:0x0(%rax,%rax,1)
  400f3d:	00 00 00 

0000000000400f40 <register_tm_clones>:
  400f40:	be b0 54 60 00       	mov    $0x6054b0,%esi
  400f45:	55                   	push   %rbp
  400f46:	48 81 ee b0 54 60 00 	sub    $0x6054b0,%rsi
  400f4d:	48 c1 fe 03          	sar    $0x3,%rsi
  400f51:	48 89 e5             	mov    %rsp,%rbp
  400f54:	48 89 f0             	mov    %rsi,%rax
  400f57:	48 c1 e8 3f          	shr    $0x3f,%rax
  400f5b:	48 01 c6             	add    %rax,%rsi
  400f5e:	48 d1 fe             	sar    %rsi
  400f61:	74 15                	je     400f78 <register_tm_clones+0x38>
  400f63:	b8 00 00 00 00       	mov    $0x0,%eax
  400f68:	48 85 c0             	test   %rax,%rax
  400f6b:	74 0b                	je     400f78 <register_tm_clones+0x38>
  400f6d:	5d                   	pop    %rbp
  400f6e:	bf b0 54 60 00       	mov    $0x6054b0,%edi
  400f73:	ff e0                	jmpq   *%rax
  400f75:	0f 1f 00             	nopl   (%rax)
  400f78:	5d                   	pop    %rbp
  400f79:	c3                   	retq   
  400f7a:	66 0f 1f 44 00 00    	nopw   0x0(%rax,%rax,1)

0000000000400f80 <__do_global_dtors_aux>:
  400f80:	80 3d 61 45 20 00 00 	cmpb   $0x0,0x204561(%rip)        # 6054e8 <completed.7594>
  400f87:	75 11                	jne    400f9a <__do_global_dtors_aux+0x1a>
  400f89:	55                   	push   %rbp
  400f8a:	48 89 e5             	mov    %rsp,%rbp
  400f8d:	e8 6e ff ff ff       	callq  400f00 <deregister_tm_clones>
  400f92:	5d                   	pop    %rbp
  400f93:	c6 05 4e 45 20 00 01 	movb   $0x1,0x20454e(%rip)        # 6054e8 <completed.7594>
  400f9a:	f3 c3                	repz retq 
  400f9c:	0f 1f 40 00          	nopl   0x0(%rax)

0000000000400fa0 <frame_dummy>:
  400fa0:	bf 10 4e 60 00       	mov    $0x604e10,%edi
  400fa5:	48 83 3f 00          	cmpq   $0x0,(%rdi)
  400fa9:	75 05                	jne    400fb0 <frame_dummy+0x10>
  400fab:	eb 93                	jmp    400f40 <register_tm_clones>
  400fad:	0f 1f 00             	nopl   (%rax)
  400fb0:	b8 00 00 00 00       	mov    $0x0,%eax
  400fb5:	48 85 c0             	test   %rax,%rax
  400fb8:	74 f1                	je     400fab <frame_dummy+0xb>
  400fba:	55                   	push   %rbp
  400fbb:	48 89 e5             	mov    %rsp,%rbp
  400fbe:	ff d0                	callq  *%rax
  400fc0:	5d                   	pop    %rbp
  400fc1:	e9 7a ff ff ff       	jmpq   400f40 <register_tm_clones>

0000000000400fc6 <usage>:
  400fc6:	48 83 ec 08          	sub    $0x8,%rsp
  400fca:	48 89 fa             	mov    %rdi,%rdx
  400fcd:	83 3d 54 45 20 00 00 	cmpl   $0x0,0x204554(%rip)        # 605528 <is_checker>
  400fd4:	74 3e                	je     401014 <usage+0x4e>
  400fd6:	be b8 30 40 00       	mov    $0x4030b8,%esi
  400fdb:	bf 01 00 00 00       	mov    $0x1,%edi
  400fe0:	b8 00 00 00 00       	mov    $0x0,%eax
  400fe5:	e8 36 fe ff ff       	callq  400e20 <__printf_chk@plt>
  400fea:	bf f0 30 40 00       	mov    $0x4030f0,%edi
  400fef:	e8 fc fc ff ff       	callq  400cf0 <puts@plt>
  400ff4:	bf 68 32 40 00       	mov    $0x403268,%edi
  400ff9:	e8 f2 fc ff ff       	callq  400cf0 <puts@plt>
  400ffe:	bf 18 31 40 00       	mov    $0x403118,%edi
  401003:	e8 e8 fc ff ff       	callq  400cf0 <puts@plt>
  401008:	bf 82 32 40 00       	mov    $0x403282,%edi
  40100d:	e8 de fc ff ff       	callq  400cf0 <puts@plt>
  401012:	eb 32                	jmp    401046 <usage+0x80>
  401014:	be 9e 32 40 00       	mov    $0x40329e,%esi
  401019:	bf 01 00 00 00       	mov    $0x1,%edi
  40101e:	b8 00 00 00 00       	mov    $0x0,%eax
  401023:	e8 f8 fd ff ff       	callq  400e20 <__printf_chk@plt>
  401028:	bf 40 31 40 00       	mov    $0x403140,%edi
  40102d:	e8 be fc ff ff       	callq  400cf0 <puts@plt>
  401032:	bf 68 31 40 00       	mov    $0x403168,%edi
  401037:	e8 b4 fc ff ff       	callq  400cf0 <puts@plt>
  40103c:	bf bc 32 40 00       	mov    $0x4032bc,%edi
  401041:	e8 aa fc ff ff       	callq  400cf0 <puts@plt>
  401046:	bf 00 00 00 00       	mov    $0x0,%edi
  40104b:	e8 20 fe ff ff       	callq  400e70 <exit@plt>

0000000000401050 <initialize_target>:
  401050:	55                   	push   %rbp
  401051:	53                   	push   %rbx
  401052:	48 81 ec 18 21 00 00 	sub    $0x2118,%rsp
  401059:	89 f5                	mov    %esi,%ebp
  40105b:	64 48 8b 04 25 28 00 	mov    %fs:0x28,%rax
  401062:	00 00 
  401064:	48 89 84 24 08 21 00 	mov    %rax,0x2108(%rsp)
  40106b:	00 
  40106c:	31 c0                	xor    %eax,%eax
  40106e:	89 3d a4 44 20 00    	mov    %edi,0x2044a4(%rip)        # 605518 <check_level>
  401074:	8b 3d ee 40 20 00    	mov    0x2040ee(%rip),%edi        # 605168 <target_id>
  40107a:	e8 90 1f 00 00       	callq  40300f <gencookie>
  40107f:	89 05 9f 44 20 00    	mov    %eax,0x20449f(%rip)        # 605524 <cookie>
  401085:	89 c7                	mov    %eax,%edi
  401087:	e8 83 1f 00 00       	callq  40300f <gencookie>
  40108c:	89 05 8e 44 20 00    	mov    %eax,0x20448e(%rip)        # 605520 <authkey>
  401092:	8b 05 d0 40 20 00    	mov    0x2040d0(%rip),%eax        # 605168 <target_id>
  401098:	8d 78 01             	lea    0x1(%rax),%edi
  40109b:	e8 20 fc ff ff       	callq  400cc0 <srandom@plt>
  4010a0:	e8 3b fd ff ff       	callq  400de0 <random@plt>
  4010a5:	89 c7                	mov    %eax,%edi
  4010a7:	e8 03 03 00 00       	callq  4013af <scramble>
  4010ac:	89 c3                	mov    %eax,%ebx
  4010ae:	85 ed                	test   %ebp,%ebp
  4010b0:	74 18                	je     4010ca <initialize_target+0x7a>
  4010b2:	bf 00 00 00 00       	mov    $0x0,%edi
  4010b7:	e8 14 fd ff ff       	callq  400dd0 <time@plt>
  4010bc:	89 c7                	mov    %eax,%edi
  4010be:	e8 fd fb ff ff       	callq  400cc0 <srandom@plt>
  4010c3:	e8 18 fd ff ff       	callq  400de0 <random@plt>
  4010c8:	eb 05                	jmp    4010cf <initialize_target+0x7f>
  4010ca:	b8 00 00 00 00       	mov    $0x0,%eax
  4010cf:	01 c3                	add    %eax,%ebx
  4010d1:	0f b7 db             	movzwl %bx,%ebx
  4010d4:	8d 04 dd 00 01 00 00 	lea    0x100(,%rbx,8),%eax
  4010db:	89 c0                	mov    %eax,%eax
  4010dd:	48 89 05 bc 43 20 00 	mov    %rax,0x2043bc(%rip)        # 6054a0 <buf_offset>
  4010e4:	c6 05 5d 50 20 00 72 	movb   $0x72,0x20505d(%rip)        # 606148 <target_prefix>
  4010eb:	83 3d b6 43 20 00 00 	cmpl   $0x0,0x2043b6(%rip)        # 6054a8 <notify>
  4010f2:	0f 84 bb 00 00 00    	je     4011b3 <initialize_target+0x163>
  4010f8:	83 3d 29 44 20 00 00 	cmpl   $0x0,0x204429(%rip)        # 605528 <is_checker>
  4010ff:	0f 85 ae 00 00 00    	jne    4011b3 <initialize_target+0x163>
  401105:	be 00 01 00 00       	mov    $0x100,%esi
  40110a:	48 89 e7             	mov    %rsp,%rdi
  40110d:	e8 4e fd ff ff       	callq  400e60 <gethostname@plt>
  401112:	85 c0                	test   %eax,%eax
  401114:	74 25                	je     40113b <initialize_target+0xeb>
  401116:	bf 98 31 40 00       	mov    $0x403198,%edi
  40111b:	e8 d0 fb ff ff       	callq  400cf0 <puts@plt>
  401120:	bf 08 00 00 00       	mov    $0x8,%edi
  401125:	e8 46 fd ff ff       	callq  400e70 <exit@plt>
  40112a:	48 89 e6             	mov    %rsp,%rsi
  40112d:	e8 6e fb ff ff       	callq  400ca0 <strcasecmp@plt>
  401132:	85 c0                	test   %eax,%eax
  401134:	74 21                	je     401157 <initialize_target+0x107>
  401136:	83 c3 01             	add    $0x1,%ebx
  401139:	eb 05                	jmp    401140 <initialize_target+0xf0>
  40113b:	bb 00 00 00 00       	mov    $0x0,%ebx
  401140:	48 63 c3             	movslq %ebx,%rax
  401143:	48 8b 3c c5 80 51 60 	mov    0x605180(,%rax,8),%rdi
  40114a:	00 
  40114b:	48 85 ff             	test   %rdi,%rdi
  40114e:	75 da                	jne    40112a <initialize_target+0xda>
  401150:	b8 00 00 00 00       	mov    $0x0,%eax
  401155:	eb 05                	jmp    40115c <initialize_target+0x10c>
  401157:	b8 01 00 00 00       	mov    $0x1,%eax
  40115c:	85 c0                	test   %eax,%eax
  40115e:	75 1c                	jne    40117c <initialize_target+0x12c>
  401160:	48 89 e2             	mov    %rsp,%rdx
  401163:	be d0 31 40 00       	mov    $0x4031d0,%esi
  401168:	bf 01 00 00 00       	mov    $0x1,%edi
  40116d:	e8 ae fc ff ff       	callq  400e20 <__printf_chk@plt>
  401172:	bf 08 00 00 00       	mov    $0x8,%edi
  401177:	e8 f4 fc ff ff       	callq  400e70 <exit@plt>
  40117c:	48 8d bc 24 00 01 00 	lea    0x100(%rsp),%rdi
  401183:	00 
  401184:	e8 f0 1b 00 00       	callq  402d79 <init_driver>
  401189:	85 c0                	test   %eax,%eax
  40118b:	79 26                	jns    4011b3 <initialize_target+0x163>
  40118d:	48 8d 94 24 00 01 00 	lea    0x100(%rsp),%rdx
  401194:	00 
  401195:	be 10 32 40 00       	mov    $0x403210,%esi
  40119a:	bf 01 00 00 00       	mov    $0x1,%edi
  40119f:	b8 00 00 00 00       	mov    $0x0,%eax
  4011a4:	e8 77 fc ff ff       	callq  400e20 <__printf_chk@plt>
  4011a9:	bf 08 00 00 00       	mov    $0x8,%edi
  4011ae:	e8 bd fc ff ff       	callq  400e70 <exit@plt>
  4011b3:	48 8b 84 24 08 21 00 	mov    0x2108(%rsp),%rax
  4011ba:	00 
  4011bb:	64 48 33 04 25 28 00 	xor    %fs:0x28,%rax
  4011c2:	00 00 
  4011c4:	74 05                	je     4011cb <initialize_target+0x17b>
  4011c6:	e8 45 fb ff ff       	callq  400d10 <__stack_chk_fail@plt>
  4011cb:	48 81 c4 18 21 00 00 	add    $0x2118,%rsp
  4011d2:	5b                   	pop    %rbx
  4011d3:	5d                   	pop    %rbp
  4011d4:	c3                   	retq   

00000000004011d5 <main>:
  4011d5:	41 56                	push   %r14
  4011d7:	41 55                	push   %r13
  4011d9:	41 54                	push   %r12
  4011db:	55                   	push   %rbp
  4011dc:	53                   	push   %rbx
  4011dd:	41 89 fc             	mov    %edi,%r12d
  4011e0:	48 89 f3             	mov    %rsi,%rbx
  4011e3:	be 99 20 40 00       	mov    $0x402099,%esi
  4011e8:	bf 0b 00 00 00       	mov    $0xb,%edi
  4011ed:	e8 8e fb ff ff       	callq  400d80 <signal@plt>
  4011f2:	be 4b 20 40 00       	mov    $0x40204b,%esi
  4011f7:	bf 07 00 00 00       	mov    $0x7,%edi
  4011fc:	e8 7f fb ff ff       	callq  400d80 <signal@plt>
  401201:	be e7 20 40 00       	mov    $0x4020e7,%esi
  401206:	bf 04 00 00 00       	mov    $0x4,%edi
  40120b:	e8 70 fb ff ff       	callq  400d80 <signal@plt>
  401210:	83 3d 11 43 20 00 00 	cmpl   $0x0,0x204311(%rip)        # 605528 <is_checker>
  401217:	74 20                	je     401239 <main+0x64>
  401219:	be 35 21 40 00       	mov    $0x402135,%esi
  40121e:	bf 0e 00 00 00       	mov    $0xe,%edi
  401223:	e8 58 fb ff ff       	callq  400d80 <signal@plt>
  401228:	bf 05 00 00 00       	mov    $0x5,%edi
  40122d:	e8 0e fb ff ff       	callq  400d40 <alarm@plt>
  401232:	bd da 32 40 00       	mov    $0x4032da,%ebp
  401237:	eb 05                	jmp    40123e <main+0x69>
  401239:	bd d5 32 40 00       	mov    $0x4032d5,%ebp
  40123e:	48 8b 05 7b 42 20 00 	mov    0x20427b(%rip),%rax        # 6054c0 <stdin@@GLIBC_2.2.5>
  401245:	48 89 05 c4 42 20 00 	mov    %rax,0x2042c4(%rip)        # 605510 <infile>
  40124c:	41 bd 00 00 00 00    	mov    $0x0,%r13d
  401252:	41 be 00 00 00 00    	mov    $0x0,%r14d
  401258:	e9 c6 00 00 00       	jmpq   401323 <main+0x14e>
  40125d:	83 e8 61             	sub    $0x61,%eax
  401260:	3c 10                	cmp    $0x10,%al
  401262:	0f 87 9c 00 00 00    	ja     401304 <main+0x12f>
  401268:	0f b6 c0             	movzbl %al,%eax
  40126b:	ff 24 c5 20 33 40 00 	jmpq   *0x403320(,%rax,8)
  401272:	48 8b 3b             	mov    (%rbx),%rdi
  401275:	e8 4c fd ff ff       	callq  400fc6 <usage>
  40127a:	be 2d 36 40 00       	mov    $0x40362d,%esi
  40127f:	48 8b 3d 42 42 20 00 	mov    0x204242(%rip),%rdi        # 6054c8 <optarg@@GLIBC_2.2.5>
  401286:	e8 a5 fb ff ff       	callq  400e30 <fopen@plt>
  40128b:	48 89 05 7e 42 20 00 	mov    %rax,0x20427e(%rip)        # 605510 <infile>
  401292:	48 85 c0             	test   %rax,%rax
  401295:	0f 85 88 00 00 00    	jne    401323 <main+0x14e>
  40129b:	48 8b 0d 26 42 20 00 	mov    0x204226(%rip),%rcx        # 6054c8 <optarg@@GLIBC_2.2.5>
  4012a2:	ba e2 32 40 00       	mov    $0x4032e2,%edx
  4012a7:	be 01 00 00 00       	mov    $0x1,%esi
  4012ac:	48 8b 3d 2d 42 20 00 	mov    0x20422d(%rip),%rdi        # 6054e0 <stderr@@GLIBC_2.2.5>
  4012b3:	e8 d8 fb ff ff       	callq  400e90 <__fprintf_chk@plt>
  4012b8:	b8 01 00 00 00       	mov    $0x1,%eax
  4012bd:	e9 e4 00 00 00       	jmpq   4013a6 <main+0x1d1>
  4012c2:	ba 10 00 00 00       	mov    $0x10,%edx
  4012c7:	be 00 00 00 00       	mov    $0x0,%esi
  4012cc:	48 8b 3d f5 41 20 00 	mov    0x2041f5(%rip),%rdi        # 6054c8 <optarg@@GLIBC_2.2.5>
  4012d3:	e8 78 fb ff ff       	callq  400e50 <strtoul@plt>
  4012d8:	41 89 c6             	mov    %eax,%r14d
  4012db:	eb 46                	jmp    401323 <main+0x14e>
  4012dd:	ba 0a 00 00 00       	mov    $0xa,%edx
  4012e2:	be 00 00 00 00       	mov    $0x0,%esi
  4012e7:	48 8b 3d da 41 20 00 	mov    0x2041da(%rip),%rdi        # 6054c8 <optarg@@GLIBC_2.2.5>
  4012ee:	e8 bd fa ff ff       	callq  400db0 <strtol@plt>
  4012f3:	41 89 c5             	mov    %eax,%r13d
  4012f6:	eb 2b                	jmp    401323 <main+0x14e>
  4012f8:	c7 05 a6 41 20 00 00 	movl   $0x0,0x2041a6(%rip)        # 6054a8 <notify>
  4012ff:	00 00 00 
  401302:	eb 1f                	jmp    401323 <main+0x14e>
  401304:	0f be d2             	movsbl %dl,%edx
  401307:	be ff 32 40 00       	mov    $0x4032ff,%esi
  40130c:	bf 01 00 00 00       	mov    $0x1,%edi
  401311:	b8 00 00 00 00       	mov    $0x0,%eax
  401316:	e8 05 fb ff ff       	callq  400e20 <__printf_chk@plt>
  40131b:	48 8b 3b             	mov    (%rbx),%rdi
  40131e:	e8 a3 fc ff ff       	callq  400fc6 <usage>
  401323:	48 89 ea             	mov    %rbp,%rdx
  401326:	48 89 de             	mov    %rbx,%rsi
  401329:	44 89 e7             	mov    %r12d,%edi
  40132c:	e8 0f fb ff ff       	callq  400e40 <getopt@plt>
  401331:	89 c2                	mov    %eax,%edx
  401333:	3c ff                	cmp    $0xff,%al
  401335:	0f 85 22 ff ff ff    	jne    40125d <main+0x88>
  40133b:	be 01 00 00 00       	mov    $0x1,%esi
  401340:	44 89 ef             	mov    %r13d,%edi
  401343:	e8 08 fd ff ff       	callq  401050 <initialize_target>
  401348:	83 3d d9 41 20 00 00 	cmpl   $0x0,0x2041d9(%rip)        # 605528 <is_checker>
  40134f:	74 2a                	je     40137b <main+0x1a6>
  401351:	44 3b 35 c8 41 20 00 	cmp    0x2041c8(%rip),%r14d        # 605520 <authkey>
  401358:	74 21                	je     40137b <main+0x1a6>
  40135a:	44 89 f2             	mov    %r14d,%edx
  40135d:	be 38 32 40 00       	mov    $0x403238,%esi
  401362:	bf 01 00 00 00       	mov    $0x1,%edi
  401367:	b8 00 00 00 00       	mov    $0x0,%eax
  40136c:	e8 af fa ff ff       	callq  400e20 <__printf_chk@plt>
  401371:	b8 00 00 00 00       	mov    $0x0,%eax
  401376:	e8 6c 09 00 00       	callq  401ce7 <check_fail>
  40137b:	8b 15 a3 41 20 00    	mov    0x2041a3(%rip),%edx        # 605524 <cookie>
  401381:	be 12 33 40 00       	mov    $0x403312,%esi
  401386:	bf 01 00 00 00       	mov    $0x1,%edi
  40138b:	b8 00 00 00 00       	mov    $0x0,%eax
  401390:	e8 8b fa ff ff       	callq  400e20 <__printf_chk@plt>
  401395:	48 8b 3d 04 41 20 00 	mov    0x204104(%rip),%rdi        # 6054a0 <buf_offset>
  40139c:	e8 e7 0d 00 00       	callq  402188 <launch>
  4013a1:	b8 00 00 00 00       	mov    $0x0,%eax
  4013a6:	5b                   	pop    %rbx
  4013a7:	5d                   	pop    %rbp
  4013a8:	41 5c                	pop    %r12
  4013aa:	41 5d                	pop    %r13
  4013ac:	41 5e                	pop    %r14
  4013ae:	c3                   	retq   

00000000004013af <scramble>:
  4013af:	48 83 ec 38          	sub    $0x38,%rsp
  4013b3:	64 48 8b 04 25 28 00 	mov    %fs:0x28,%rax
  4013ba:	00 00 
  4013bc:	48 89 44 24 28       	mov    %rax,0x28(%rsp)
  4013c1:	31 c0                	xor    %eax,%eax
  4013c3:	eb 10                	jmp    4013d5 <scramble+0x26>
  4013c5:	69 d0 28 ad 00 00    	imul   $0xad28,%eax,%edx
  4013cb:	01 fa                	add    %edi,%edx
  4013cd:	89 c1                	mov    %eax,%ecx
  4013cf:	89 14 8c             	mov    %edx,(%rsp,%rcx,4)
  4013d2:	83 c0 01             	add    $0x1,%eax
  4013d5:	83 f8 09             	cmp    $0x9,%eax
  4013d8:	76 eb                	jbe    4013c5 <scramble+0x16>
  4013da:	8b 44 24 0c          	mov    0xc(%rsp),%eax
  4013de:	69 c0 9a f7 00 00    	imul   $0xf79a,%eax,%eax
  4013e4:	89 44 24 0c          	mov    %eax,0xc(%rsp)
  4013e8:	8b 44 24 24          	mov    0x24(%rsp),%eax
  4013ec:	69 c0 be e1 00 00    	imul   $0xe1be,%eax,%eax
  4013f2:	89 44 24 24          	mov    %eax,0x24(%rsp)
  4013f6:	8b 44 24 18          	mov    0x18(%rsp),%eax
  4013fa:	69 c0 08 d5 00 00    	imul   $0xd508,%eax,%eax
  401400:	89 44 24 18          	mov    %eax,0x18(%rsp)
  401404:	8b 44 24 08          	mov    0x8(%rsp),%eax
  401408:	69 c0 29 1c 00 00    	imul   $0x1c29,%eax,%eax
  40140e:	89 44 24 08          	mov    %eax,0x8(%rsp)
  401412:	8b 44 24 24          	mov    0x24(%rsp),%eax
  401416:	69 c0 33 be 00 00    	imul   $0xbe33,%eax,%eax
  40141c:	89 44 24 24          	mov    %eax,0x24(%rsp)
  401420:	8b 44 24 08          	mov    0x8(%rsp),%eax
  401424:	69 c0 17 c8 00 00    	imul   $0xc817,%eax,%eax
  40142a:	89 44 24 08          	mov    %eax,0x8(%rsp)
  40142e:	8b 44 24 1c          	mov    0x1c(%rsp),%eax
  401432:	69 c0 7f 92 00 00    	imul   $0x927f,%eax,%eax
  401438:	89 44 24 1c          	mov    %eax,0x1c(%rsp)
  40143c:	8b 44 24 0c          	mov    0xc(%rsp),%eax
  401440:	69 c0 9f 60 00 00    	imul   $0x609f,%eax,%eax
  401446:	89 44 24 0c          	mov    %eax,0xc(%rsp)
  40144a:	8b 44 24 20          	mov    0x20(%rsp),%eax
  40144e:	69 c0 65 72 00 00    	imul   $0x7265,%eax,%eax
  401454:	89 44 24 20          	mov    %eax,0x20(%rsp)
  401458:	8b 44 24 04          	mov    0x4(%rsp),%eax
  40145c:	69 c0 7e f9 00 00    	imul   $0xf97e,%eax,%eax
  401462:	89 44 24 04          	mov    %eax,0x4(%rsp)
  401466:	8b 44 24 18          	mov    0x18(%rsp),%eax
  40146a:	69 c0 ba a8 00 00    	imul   $0xa8ba,%eax,%eax
  401470:	89 44 24 18          	mov    %eax,0x18(%rsp)
  401474:	8b 44 24 24          	mov    0x24(%rsp),%eax
  401478:	69 c0 34 4d 00 00    	imul   $0x4d34,%eax,%eax
  40147e:	89 44 24 24          	mov    %eax,0x24(%rsp)
  401482:	8b 44 24 10          	mov    0x10(%rsp),%eax
  401486:	69 c0 22 2e 00 00    	imul   $0x2e22,%eax,%eax
  40148c:	89 44 24 10          	mov    %eax,0x10(%rsp)
  401490:	8b 44 24 10          	mov    0x10(%rsp),%eax
  401494:	69 c0 b2 60 00 00    	imul   $0x60b2,%eax,%eax
  40149a:	89 44 24 10          	mov    %eax,0x10(%rsp)
  40149e:	8b 44 24 04          	mov    0x4(%rsp),%eax
  4014a2:	69 c0 70 14 00 00    	imul   $0x1470,%eax,%eax
  4014a8:	89 44 24 04          	mov    %eax,0x4(%rsp)
  4014ac:	8b 44 24 08          	mov    0x8(%rsp),%eax
  4014b0:	69 c0 f8 ed 00 00    	imul   $0xedf8,%eax,%eax
  4014b6:	89 44 24 08          	mov    %eax,0x8(%rsp)
  4014ba:	8b 44 24 08          	mov    0x8(%rsp),%eax
  4014be:	69 c0 d6 71 00 00    	imul   $0x71d6,%eax,%eax
  4014c4:	89 44 24 08          	mov    %eax,0x8(%rsp)
  4014c8:	8b 44 24 0c          	mov    0xc(%rsp),%eax
  4014cc:	69 c0 02 5c 00 00    	imul   $0x5c02,%eax,%eax
  4014d2:	89 44 24 0c          	mov    %eax,0xc(%rsp)
  4014d6:	8b 44 24 1c          	mov    0x1c(%rsp),%eax
  4014da:	69 c0 9a c1 00 00    	imul   $0xc19a,%eax,%eax
  4014e0:	89 44 24 1c          	mov    %eax,0x1c(%rsp)
  4014e4:	8b 44 24 14          	mov    0x14(%rsp),%eax
  4014e8:	69 c0 ed 6f 00 00    	imul   $0x6fed,%eax,%eax
  4014ee:	89 44 24 14          	mov    %eax,0x14(%rsp)
  4014f2:	8b 44 24 20          	mov    0x20(%rsp),%eax
  4014f6:	69 c0 0f 92 00 00    	imul   $0x920f,%eax,%eax
  4014fc:	89 44 24 20          	mov    %eax,0x20(%rsp)
  401500:	8b 44 24 18          	mov    0x18(%rsp),%eax
  401504:	69 c0 a3 22 00 00    	imul   $0x22a3,%eax,%eax
  40150a:	89 44 24 18          	mov    %eax,0x18(%rsp)
  40150e:	8b 44 24 1c          	mov    0x1c(%rsp),%eax
  401512:	69 c0 e0 ba 00 00    	imul   $0xbae0,%eax,%eax
  401518:	89 44 24 1c          	mov    %eax,0x1c(%rsp)
  40151c:	8b 44 24 04          	mov    0x4(%rsp),%eax
  401520:	69 c0 77 ff 00 00    	imul   $0xff77,%eax,%eax
  401526:	89 44 24 04          	mov    %eax,0x4(%rsp)
  40152a:	8b 44 24 18          	mov    0x18(%rsp),%eax
  40152e:	69 c0 73 c7 00 00    	imul   $0xc773,%eax,%eax
  401534:	89 44 24 18          	mov    %eax,0x18(%rsp)
  401538:	8b 44 24 14          	mov    0x14(%rsp),%eax
  40153c:	69 c0 f4 80 00 00    	imul   $0x80f4,%eax,%eax
  401542:	89 44 24 14          	mov    %eax,0x14(%rsp)
  401546:	8b 44 24 10          	mov    0x10(%rsp),%eax
  40154a:	69 c0 f0 e4 00 00    	imul   $0xe4f0,%eax,%eax
  401550:	89 44 24 10          	mov    %eax,0x10(%rsp)
  401554:	8b 04 24             	mov    (%rsp),%eax
  401557:	69 c0 f2 c4 00 00    	imul   $0xc4f2,%eax,%eax
  40155d:	89 04 24             	mov    %eax,(%rsp)
  401560:	8b 44 24 20          	mov    0x20(%rsp),%eax
  401564:	69 c0 de 26 00 00    	imul   $0x26de,%eax,%eax
  40156a:	89 44 24 20          	mov    %eax,0x20(%rsp)
  40156e:	8b 44 24 1c          	mov    0x1c(%rsp),%eax
  401572:	69 c0 e2 53 00 00    	imul   $0x53e2,%eax,%eax
  401578:	89 44 24 1c          	mov    %eax,0x1c(%rsp)
  40157c:	8b 04 24             	mov    (%rsp),%eax
  40157f:	69 c0 29 83 00 00    	imul   $0x8329,%eax,%eax
  401585:	89 04 24             	mov    %eax,(%rsp)
  401588:	8b 44 24 20          	mov    0x20(%rsp),%eax
  40158c:	69 c0 59 47 00 00    	imul   $0x4759,%eax,%eax
  401592:	89 44 24 20          	mov    %eax,0x20(%rsp)
  401596:	8b 44 24 14          	mov    0x14(%rsp),%eax
  40159a:	69 c0 90 11 00 00    	imul   $0x1190,%eax,%eax
  4015a0:	89 44 24 14          	mov    %eax,0x14(%rsp)
  4015a4:	8b 04 24             	mov    (%rsp),%eax
  4015a7:	69 c0 df 3b 00 00    	imul   $0x3bdf,%eax,%eax
  4015ad:	89 04 24             	mov    %eax,(%rsp)
  4015b0:	8b 44 24 20          	mov    0x20(%rsp),%eax
  4015b4:	69 c0 87 1b 00 00    	imul   $0x1b87,%eax,%eax
  4015ba:	89 44 24 20          	mov    %eax,0x20(%rsp)
  4015be:	8b 44 24 08          	mov    0x8(%rsp),%eax
  4015c2:	69 c0 f8 52 00 00    	imul   $0x52f8,%eax,%eax
  4015c8:	89 44 24 08          	mov    %eax,0x8(%rsp)
  4015cc:	8b 44 24 14          	mov    0x14(%rsp),%eax
  4015d0:	69 c0 d1 e3 00 00    	imul   $0xe3d1,%eax,%eax
  4015d6:	89 44 24 14          	mov    %eax,0x14(%rsp)
  4015da:	8b 44 24 14          	mov    0x14(%rsp),%eax
  4015de:	69 c0 24 d2 00 00    	imul   $0xd224,%eax,%eax
  4015e4:	89 44 24 14          	mov    %eax,0x14(%rsp)
  4015e8:	8b 44 24 10          	mov    0x10(%rsp),%eax
  4015ec:	69 c0 de f8 00 00    	imul   $0xf8de,%eax,%eax
  4015f2:	89 44 24 10          	mov    %eax,0x10(%rsp)
  4015f6:	8b 44 24 24          	mov    0x24(%rsp),%eax
  4015fa:	69 c0 f6 cb 00 00    	imul   $0xcbf6,%eax,%eax
  401600:	89 44 24 24          	mov    %eax,0x24(%rsp)
  401604:	8b 44 24 08          	mov    0x8(%rsp),%eax
  401608:	69 c0 92 ca 00 00    	imul   $0xca92,%eax,%eax
  40160e:	89 44 24 08          	mov    %eax,0x8(%rsp)
  401612:	8b 44 24 08          	mov    0x8(%rsp),%eax
  401616:	69 c0 7e 30 00 00    	imul   $0x307e,%eax,%eax
  40161c:	89 44 24 08          	mov    %eax,0x8(%rsp)
  401620:	8b 44 24 0c          	mov    0xc(%rsp),%eax
  401624:	69 c0 12 1b 00 00    	imul   $0x1b12,%eax,%eax
  40162a:	89 44 24 0c          	mov    %eax,0xc(%rsp)
  40162e:	8b 44 24 04          	mov    0x4(%rsp),%eax
  401632:	69 c0 94 c2 00 00    	imul   $0xc294,%eax,%eax
  401638:	89 44 24 04          	mov    %eax,0x4(%rsp)
  40163c:	8b 44 24 24          	mov    0x24(%rsp),%eax
  401640:	69 c0 15 1b 00 00    	imul   $0x1b15,%eax,%eax
  401646:	89 44 24 24          	mov    %eax,0x24(%rsp)
  40164a:	8b 44 24 14          	mov    0x14(%rsp),%eax
  40164e:	69 c0 40 7d 00 00    	imul   $0x7d40,%eax,%eax
  401654:	89 44 24 14          	mov    %eax,0x14(%rsp)
  401658:	8b 44 24 24          	mov    0x24(%rsp),%eax
  40165c:	69 c0 51 58 00 00    	imul   $0x5851,%eax,%eax
  401662:	89 44 24 24          	mov    %eax,0x24(%rsp)
  401666:	8b 44 24 10          	mov    0x10(%rsp),%eax
  40166a:	69 c0 3f 93 00 00    	imul   $0x933f,%eax,%eax
  401670:	89 44 24 10          	mov    %eax,0x10(%rsp)
  401674:	8b 44 24 18          	mov    0x18(%rsp),%eax
  401678:	69 c0 f5 67 00 00    	imul   $0x67f5,%eax,%eax
  40167e:	89 44 24 18          	mov    %eax,0x18(%rsp)
  401682:	8b 44 24 08          	mov    0x8(%rsp),%eax
  401686:	69 c0 0c 3d 00 00    	imul   $0x3d0c,%eax,%eax
  40168c:	89 44 24 08          	mov    %eax,0x8(%rsp)
  401690:	8b 44 24 10          	mov    0x10(%rsp),%eax
  401694:	69 c0 ea 7a 00 00    	imul   $0x7aea,%eax,%eax
  40169a:	89 44 24 10          	mov    %eax,0x10(%rsp)
  40169e:	8b 44 24 14          	mov    0x14(%rsp),%eax
  4016a2:	69 c0 12 31 00 00    	imul   $0x3112,%eax,%eax
  4016a8:	89 44 24 14          	mov    %eax,0x14(%rsp)
  4016ac:	8b 44 24 10          	mov    0x10(%rsp),%eax
  4016b0:	69 c0 a0 05 00 00    	imul   $0x5a0,%eax,%eax
  4016b6:	89 44 24 10          	mov    %eax,0x10(%rsp)
  4016ba:	8b 44 24 18          	mov    0x18(%rsp),%eax
  4016be:	69 c0 6c fd 00 00    	imul   $0xfd6c,%eax,%eax
  4016c4:	89 44 24 18          	mov    %eax,0x18(%rsp)
  4016c8:	8b 04 24             	mov    (%rsp),%eax
  4016cb:	69 c0 d2 d4 00 00    	imul   $0xd4d2,%eax,%eax
  4016d1:	89 04 24             	mov    %eax,(%rsp)
  4016d4:	8b 04 24             	mov    (%rsp),%eax
  4016d7:	69 c0 d0 be 00 00    	imul   $0xbed0,%eax,%eax
  4016dd:	89 04 24             	mov    %eax,(%rsp)
  4016e0:	8b 44 24 08          	mov    0x8(%rsp),%eax
  4016e4:	69 c0 4c 16 00 00    	imul   $0x164c,%eax,%eax
  4016ea:	89 44 24 08          	mov    %eax,0x8(%rsp)
  4016ee:	8b 44 24 14          	mov    0x14(%rsp),%eax
  4016f2:	69 c0 e6 4e 00 00    	imul   $0x4ee6,%eax,%eax
  4016f8:	89 44 24 14          	mov    %eax,0x14(%rsp)
  4016fc:	8b 44 24 1c          	mov    0x1c(%rsp),%eax
  401700:	69 c0 bf e4 00 00    	imul   $0xe4bf,%eax,%eax
  401706:	89 44 24 1c          	mov    %eax,0x1c(%rsp)
  40170a:	8b 44 24 04          	mov    0x4(%rsp),%eax
  40170e:	69 c0 50 73 00 00    	imul   $0x7350,%eax,%eax
  401714:	89 44 24 04          	mov    %eax,0x4(%rsp)
  401718:	8b 44 24 10          	mov    0x10(%rsp),%eax
  40171c:	69 c0 f2 27 00 00    	imul   $0x27f2,%eax,%eax
  401722:	89 44 24 10          	mov    %eax,0x10(%rsp)
  401726:	8b 44 24 24          	mov    0x24(%rsp),%eax
  40172a:	69 c0 14 9e 00 00    	imul   $0x9e14,%eax,%eax
  401730:	89 44 24 24          	mov    %eax,0x24(%rsp)
  401734:	8b 44 24 04          	mov    0x4(%rsp),%eax
  401738:	69 c0 29 b5 00 00    	imul   $0xb529,%eax,%eax
  40173e:	89 44 24 04          	mov    %eax,0x4(%rsp)
  401742:	8b 44 24 08          	mov    0x8(%rsp),%eax
  401746:	69 c0 25 ea 00 00    	imul   $0xea25,%eax,%eax
  40174c:	89 44 24 08          	mov    %eax,0x8(%rsp)
  401750:	8b 04 24             	mov    (%rsp),%eax
  401753:	6b c0 71             	imul   $0x71,%eax,%eax
  401756:	89 04 24             	mov    %eax,(%rsp)
  401759:	8b 44 24 14          	mov    0x14(%rsp),%eax
  40175d:	69 c0 9a a0 00 00    	imul   $0xa09a,%eax,%eax
  401763:	89 44 24 14          	mov    %eax,0x14(%rsp)
  401767:	8b 04 24             	mov    (%rsp),%eax
  40176a:	69 c0 36 b7 00 00    	imul   $0xb736,%eax,%eax
  401770:	89 04 24             	mov    %eax,(%rsp)
  401773:	8b 44 24 20          	mov    0x20(%rsp),%eax
  401777:	69 c0 17 da 00 00    	imul   $0xda17,%eax,%eax
  40177d:	89 44 24 20          	mov    %eax,0x20(%rsp)
  401781:	8b 44 24 0c          	mov    0xc(%rsp),%eax
  401785:	69 c0 e3 d4 00 00    	imul   $0xd4e3,%eax,%eax
  40178b:	89 44 24 0c          	mov    %eax,0xc(%rsp)
  40178f:	8b 44 24 1c          	mov    0x1c(%rsp),%eax
  401793:	69 c0 55 bb 00 00    	imul   $0xbb55,%eax,%eax
  401799:	89 44 24 1c          	mov    %eax,0x1c(%rsp)
  40179d:	8b 44 24 0c          	mov    0xc(%rsp),%eax
  4017a1:	69 c0 e6 a0 00 00    	imul   $0xa0e6,%eax,%eax
  4017a7:	89 44 24 0c          	mov    %eax,0xc(%rsp)
  4017ab:	8b 44 24 08          	mov    0x8(%rsp),%eax
  4017af:	69 c0 1a 49 00 00    	imul   $0x491a,%eax,%eax
  4017b5:	89 44 24 08          	mov    %eax,0x8(%rsp)
  4017b9:	8b 04 24             	mov    (%rsp),%eax
  4017bc:	69 c0 73 69 00 00    	imul   $0x6973,%eax,%eax
  4017c2:	89 04 24             	mov    %eax,(%rsp)
  4017c5:	8b 44 24 14          	mov    0x14(%rsp),%eax
  4017c9:	69 c0 91 e8 00 00    	imul   $0xe891,%eax,%eax
  4017cf:	89 44 24 14          	mov    %eax,0x14(%rsp)
  4017d3:	8b 44 24 0c          	mov    0xc(%rsp),%eax
  4017d7:	69 c0 7b a9 00 00    	imul   $0xa97b,%eax,%eax
  4017dd:	89 44 24 0c          	mov    %eax,0xc(%rsp)
  4017e1:	8b 44 24 1c          	mov    0x1c(%rsp),%eax
  4017e5:	69 c0 08 4e 00 00    	imul   $0x4e08,%eax,%eax
  4017eb:	89 44 24 1c          	mov    %eax,0x1c(%rsp)
  4017ef:	8b 44 24 10          	mov    0x10(%rsp),%eax
  4017f3:	69 c0 71 4c 00 00    	imul   $0x4c71,%eax,%eax
  4017f9:	89 44 24 10          	mov    %eax,0x10(%rsp)
  4017fd:	8b 44 24 1c          	mov    0x1c(%rsp),%eax
  401801:	69 c0 b1 51 00 00    	imul   $0x51b1,%eax,%eax
  401807:	89 44 24 1c          	mov    %eax,0x1c(%rsp)
  40180b:	8b 44 24 10          	mov    0x10(%rsp),%eax
  40180f:	69 c0 6f 1d 00 00    	imul   $0x1d6f,%eax,%eax
  401815:	89 44 24 10          	mov    %eax,0x10(%rsp)
  401819:	8b 44 24 20          	mov    0x20(%rsp),%eax
  40181d:	69 c0 b9 1e 00 00    	imul   $0x1eb9,%eax,%eax
  401823:	89 44 24 20          	mov    %eax,0x20(%rsp)
  401827:	8b 44 24 18          	mov    0x18(%rsp),%eax
  40182b:	69 c0 08 63 00 00    	imul   $0x6308,%eax,%eax
  401831:	89 44 24 18          	mov    %eax,0x18(%rsp)
  401835:	8b 44 24 0c          	mov    0xc(%rsp),%eax
  401839:	69 c0 3b 99 00 00    	imul   $0x993b,%eax,%eax
  40183f:	89 44 24 0c          	mov    %eax,0xc(%rsp)
  401843:	8b 44 24 20          	mov    0x20(%rsp),%eax
  401847:	69 c0 00 91 00 00    	imul   $0x9100,%eax,%eax
  40184d:	89 44 24 20          	mov    %eax,0x20(%rsp)
  401851:	8b 44 24 0c          	mov    0xc(%rsp),%eax
  401855:	69 c0 15 d7 00 00    	imul   $0xd715,%eax,%eax
  40185b:	89 44 24 0c          	mov    %eax,0xc(%rsp)
  40185f:	8b 04 24             	mov    (%rsp),%eax
  401862:	69 c0 d6 4a 00 00    	imul   $0x4ad6,%eax,%eax
  401868:	89 04 24             	mov    %eax,(%rsp)
  40186b:	8b 04 24             	mov    (%rsp),%eax
  40186e:	69 c0 99 0f 00 00    	imul   $0xf99,%eax,%eax
  401874:	89 04 24             	mov    %eax,(%rsp)
  401877:	8b 44 24 04          	mov    0x4(%rsp),%eax
  40187b:	69 c0 8f 0c 00 00    	imul   $0xc8f,%eax,%eax
  401881:	89 44 24 04          	mov    %eax,0x4(%rsp)
  401885:	8b 44 24 0c          	mov    0xc(%rsp),%eax
  401889:	69 c0 ee a2 00 00    	imul   $0xa2ee,%eax,%eax
  40188f:	89 44 24 0c          	mov    %eax,0xc(%rsp)
  401893:	8b 04 24             	mov    (%rsp),%eax
  401896:	69 c0 b3 f0 00 00    	imul   $0xf0b3,%eax,%eax
  40189c:	89 04 24             	mov    %eax,(%rsp)
  40189f:	8b 44 24 0c          	mov    0xc(%rsp),%eax
  4018a3:	69 c0 36 c4 00 00    	imul   $0xc436,%eax,%eax
  4018a9:	89 44 24 0c          	mov    %eax,0xc(%rsp)
  4018ad:	8b 44 24 18          	mov    0x18(%rsp),%eax
  4018b1:	69 c0 61 e7 00 00    	imul   $0xe761,%eax,%eax
  4018b7:	89 44 24 18          	mov    %eax,0x18(%rsp)
  4018bb:	8b 44 24 1c          	mov    0x1c(%rsp),%eax
  4018bf:	69 c0 9c 6b 00 00    	imul   $0x6b9c,%eax,%eax
  4018c5:	89 44 24 1c          	mov    %eax,0x1c(%rsp)
  4018c9:	8b 44 24 04          	mov    0x4(%rsp),%eax
  4018cd:	69 c0 5a fe 00 00    	imul   $0xfe5a,%eax,%eax
  4018d3:	89 44 24 04          	mov    %eax,0x4(%rsp)
  4018d7:	8b 44 24 04          	mov    0x4(%rsp),%eax
  4018db:	69 c0 6e 35 00 00    	imul   $0x356e,%eax,%eax
  4018e1:	89 44 24 04          	mov    %eax,0x4(%rsp)
  4018e5:	8b 44 24 1c          	mov    0x1c(%rsp),%eax
  4018e9:	69 c0 24 f9 00 00    	imul   $0xf924,%eax,%eax
  4018ef:	89 44 24 1c          	mov    %eax,0x1c(%rsp)
  4018f3:	8b 44 24 10          	mov    0x10(%rsp),%eax
  4018f7:	69 c0 a9 39 00 00    	imul   $0x39a9,%eax,%eax
  4018fd:	89 44 24 10          	mov    %eax,0x10(%rsp)
  401901:	8b 44 24 10          	mov    0x10(%rsp),%eax
  401905:	69 c0 7b 13 00 00    	imul   $0x137b,%eax,%eax
  40190b:	89 44 24 10          	mov    %eax,0x10(%rsp)
  40190f:	8b 44 24 08          	mov    0x8(%rsp),%eax
  401913:	69 c0 6b 76 00 00    	imul   $0x766b,%eax,%eax
  401919:	89 44 24 08          	mov    %eax,0x8(%rsp)
  40191d:	8b 44 24 04          	mov    0x4(%rsp),%eax
  401921:	69 c0 37 46 00 00    	imul   $0x4637,%eax,%eax
  401927:	89 44 24 04          	mov    %eax,0x4(%rsp)
  40192b:	8b 44 24 1c          	mov    0x1c(%rsp),%eax
  40192f:	69 c0 5f 0a 00 00    	imul   $0xa5f,%eax,%eax
  401935:	89 44 24 1c          	mov    %eax,0x1c(%rsp)
  401939:	ba 00 00 00 00       	mov    $0x0,%edx
  40193e:	b8 00 00 00 00       	mov    $0x0,%eax
  401943:	eb 0a                	jmp    40194f <scramble+0x5a0>
  401945:	89 d1                	mov    %edx,%ecx
  401947:	8b 0c 8c             	mov    (%rsp,%rcx,4),%ecx
  40194a:	01 c8                	add    %ecx,%eax
  40194c:	83 c2 01             	add    $0x1,%edx
  40194f:	83 fa 09             	cmp    $0x9,%edx
  401952:	76 f1                	jbe    401945 <scramble+0x596>
  401954:	48 8b 74 24 28       	mov    0x28(%rsp),%rsi
  401959:	64 48 33 34 25 28 00 	xor    %fs:0x28,%rsi
  401960:	00 00 
  401962:	74 05                	je     401969 <scramble+0x5ba>
  401964:	e8 a7 f3 ff ff       	callq  400d10 <__stack_chk_fail@plt>
  401969:	48 83 c4 38          	add    $0x38,%rsp
  40196d:	c3                   	retq   

000000000040196e <getbuf>:
  40196e:	48 83 ec 18          	sub    $0x18,%rsp
  401972:	48 89 e7             	mov    %rsp,%rdi
  401975:	e8 a2 03 00 00       	callq  401d1c <Gets>
  40197a:	b8 01 00 00 00       	mov    $0x1,%eax
  40197f:	48 83 c4 18          	add    $0x18,%rsp
  401983:	c3                   	retq   

0000000000401984 <touch1>:
  401984:	48 83 ec 08          	sub    $0x8,%rsp
  401988:	c7 05 8a 3b 20 00 01 	movl   $0x1,0x203b8a(%rip)        # 60551c <vlevel>
  40198f:	00 00 00 
  401992:	bf 86 34 40 00       	mov    $0x403486,%edi
  401997:	e8 54 f3 ff ff       	callq  400cf0 <puts@plt>
  40199c:	bf 01 00 00 00       	mov    $0x1,%edi
  4019a1:	e8 bb 05 00 00       	callq  401f61 <validate>
  4019a6:	bf 00 00 00 00       	mov    $0x0,%edi
  4019ab:	e8 c0 f4 ff ff       	callq  400e70 <exit@plt>

00000000004019b0 <touch2>:
  4019b0:	48 83 ec 08          	sub    $0x8,%rsp
  4019b4:	89 fa                	mov    %edi,%edx
  4019b6:	c7 05 5c 3b 20 00 02 	movl   $0x2,0x203b5c(%rip)        # 60551c <vlevel>
  4019bd:	00 00 00 
  4019c0:	39 3d 5e 3b 20 00    	cmp    %edi,0x203b5e(%rip)        # 605524 <cookie>
  4019c6:	75 20                	jne    4019e8 <touch2+0x38>
  4019c8:	be a8 34 40 00       	mov    $0x4034a8,%esi
  4019cd:	bf 01 00 00 00       	mov    $0x1,%edi
  4019d2:	b8 00 00 00 00       	mov    $0x0,%eax
  4019d7:	e8 44 f4 ff ff       	callq  400e20 <__printf_chk@plt>
  4019dc:	bf 02 00 00 00       	mov    $0x2,%edi
  4019e1:	e8 7b 05 00 00       	callq  401f61 <validate>
  4019e6:	eb 1e                	jmp    401a06 <touch2+0x56>
  4019e8:	be d0 34 40 00       	mov    $0x4034d0,%esi
  4019ed:	bf 01 00 00 00       	mov    $0x1,%edi
  4019f2:	b8 00 00 00 00       	mov    $0x0,%eax
  4019f7:	e8 24 f4 ff ff       	callq  400e20 <__printf_chk@plt>
  4019fc:	bf 02 00 00 00       	mov    $0x2,%edi
  401a01:	e8 1d 06 00 00       	callq  402023 <fail>
  401a06:	bf 00 00 00 00       	mov    $0x0,%edi
  401a0b:	e8 60 f4 ff ff       	callq  400e70 <exit@plt>

0000000000401a10 <hexmatch>:
  401a10:	41 54                	push   %r12
  401a12:	55                   	push   %rbp
  401a13:	53                   	push   %rbx
  401a14:	48 83 c4 80          	add    $0xffffffffffffff80,%rsp
  401a18:	89 fd                	mov    %edi,%ebp
  401a1a:	48 89 f3             	mov    %rsi,%rbx
  401a1d:	64 48 8b 04 25 28 00 	mov    %fs:0x28,%rax
  401a24:	00 00 
  401a26:	48 89 44 24 78       	mov    %rax,0x78(%rsp)
  401a2b:	31 c0                	xor    %eax,%eax
  401a2d:	e8 ae f3 ff ff       	callq  400de0 <random@plt>
  401a32:	48 89 c1             	mov    %rax,%rcx
  401a35:	48 ba 0b d7 a3 70 3d 	movabs $0xa3d70a3d70a3d70b,%rdx
  401a3c:	0a d7 a3 
  401a3f:	48 f7 ea             	imul   %rdx
  401a42:	48 01 ca             	add    %rcx,%rdx
  401a45:	48 c1 fa 06          	sar    $0x6,%rdx
  401a49:	48 89 c8             	mov    %rcx,%rax
  401a4c:	48 c1 f8 3f          	sar    $0x3f,%rax
  401a50:	48 29 c2             	sub    %rax,%rdx
  401a53:	48 8d 04 92          	lea    (%rdx,%rdx,4),%rax
  401a57:	48 8d 14 80          	lea    (%rax,%rax,4),%rdx
  401a5b:	48 8d 04 95 00 00 00 	lea    0x0(,%rdx,4),%rax
  401a62:	00 
  401a63:	48 29 c1             	sub    %rax,%rcx
  401a66:	4c 8d 24 0c          	lea    (%rsp,%rcx,1),%r12
  401a6a:	41 89 e8             	mov    %ebp,%r8d
  401a6d:	b9 a3 34 40 00       	mov    $0x4034a3,%ecx
  401a72:	48 c7 c2 ff ff ff ff 	mov    $0xffffffffffffffff,%rdx
  401a79:	be 01 00 00 00       	mov    $0x1,%esi
  401a7e:	4c 89 e7             	mov    %r12,%rdi
  401a81:	b8 00 00 00 00       	mov    $0x0,%eax
  401a86:	e8 15 f4 ff ff       	callq  400ea0 <__sprintf_chk@plt>
  401a8b:	ba 09 00 00 00       	mov    $0x9,%edx
  401a90:	4c 89 e6             	mov    %r12,%rsi
  401a93:	48 89 df             	mov    %rbx,%rdi
  401a96:	e8 35 f2 ff ff       	callq  400cd0 <strncmp@plt>
  401a9b:	85 c0                	test   %eax,%eax
  401a9d:	0f 94 c0             	sete   %al
  401aa0:	48 8b 5c 24 78       	mov    0x78(%rsp),%rbx
  401aa5:	64 48 33 1c 25 28 00 	xor    %fs:0x28,%rbx
  401aac:	00 00 
  401aae:	74 05                	je     401ab5 <hexmatch+0xa5>
  401ab0:	e8 5b f2 ff ff       	callq  400d10 <__stack_chk_fail@plt>
  401ab5:	0f b6 c0             	movzbl %al,%eax
  401ab8:	48 83 ec 80          	sub    $0xffffffffffffff80,%rsp
  401abc:	5b                   	pop    %rbx
  401abd:	5d                   	pop    %rbp
  401abe:	41 5c                	pop    %r12
  401ac0:	c3                   	retq   

0000000000401ac1 <touch3>:
  401ac1:	53                   	push   %rbx
  401ac2:	48 89 fb             	mov    %rdi,%rbx
  401ac5:	c7 05 4d 3a 20 00 03 	movl   $0x3,0x203a4d(%rip)        # 60551c <vlevel>
  401acc:	00 00 00 
  401acf:	48 89 fe             	mov    %rdi,%rsi
  401ad2:	8b 3d 4c 3a 20 00    	mov    0x203a4c(%rip),%edi        # 605524 <cookie>
  401ad8:	e8 33 ff ff ff       	callq  401a10 <hexmatch>
  401add:	85 c0                	test   %eax,%eax
  401adf:	74 23                	je     401b04 <touch3+0x43>
  401ae1:	48 89 da             	mov    %rbx,%rdx
  401ae4:	be f8 34 40 00       	mov    $0x4034f8,%esi
  401ae9:	bf 01 00 00 00       	mov    $0x1,%edi
  401aee:	b8 00 00 00 00       	mov    $0x0,%eax
  401af3:	e8 28 f3 ff ff       	callq  400e20 <__printf_chk@plt>
  401af8:	bf 03 00 00 00       	mov    $0x3,%edi
  401afd:	e8 5f 04 00 00       	callq  401f61 <validate>
  401b02:	eb 21                	jmp    401b25 <touch3+0x64>
  401b04:	48 89 da             	mov    %rbx,%rdx
  401b07:	be 20 35 40 00       	mov    $0x403520,%esi
  401b0c:	bf 01 00 00 00       	mov    $0x1,%edi
  401b11:	b8 00 00 00 00       	mov    $0x0,%eax
  401b16:	e8 05 f3 ff ff       	callq  400e20 <__printf_chk@plt>
  401b1b:	bf 03 00 00 00       	mov    $0x3,%edi
  401b20:	e8 fe 04 00 00       	callq  402023 <fail>
  401b25:	bf 00 00 00 00       	mov    $0x0,%edi
  401b2a:	e8 41 f3 ff ff       	callq  400e70 <exit@plt>

0000000000401b2f <test>:
  401b2f:	48 83 ec 08          	sub    $0x8,%rsp
  401b33:	b8 00 00 00 00       	mov    $0x0,%eax
  401b38:	e8 31 fe ff ff       	callq  40196e <getbuf>
  401b3d:	89 c2                	mov    %eax,%edx
  401b3f:	be 48 35 40 00       	mov    $0x403548,%esi
  401b44:	bf 01 00 00 00       	mov    $0x1,%edi
  401b49:	b8 00 00 00 00       	mov    $0x0,%eax
  401b4e:	e8 cd f2 ff ff       	callq  400e20 <__printf_chk@plt>
  401b53:	48 83 c4 08          	add    $0x8,%rsp
  401b57:	c3                   	retq   

0000000000401b58 <start_farm>:
  401b58:	b8 01 00 00 00       	mov    $0x1,%eax
  401b5d:	c3                   	retq   

0000000000401b5e <setval_450>:
  401b5e:	c7 07 48 89 c7 c7    	movl   $0xc7c78948,(%rdi)
  401b64:	c3                   	retq   

0000000000401b65 <setval_349>:
  401b65:	c7 07 18 58 90 90    	movl   $0x90905818,(%rdi)
  401b6b:	c3                   	retq   

0000000000401b6c <getval_485>:
  401b6c:	b8 50 90 90 c3       	mov    $0xc3909050,%eax
  401b71:	c3                   	retq   

0000000000401b72 <setval_298>:
  401b72:	c7 07 ed 58 90 90    	movl   $0x909058ed,(%rdi)
  401b78:	c3                   	retq   

0000000000401b79 <addval_197>:
  401b79:	8d 87 48 89 c7 c3    	lea    -0x3c3876b8(%rdi),%eax
  401b7f:	c3                   	retq   

0000000000401b80 <setval_173>:
  401b80:	c7 07 5b 8f 78 90    	movl   $0x90788f5b,(%rdi)
  401b86:	c3                   	retq   

0000000000401b87 <setval_200>:
  401b87:	c7 07 48 89 c7 94    	movl   $0x94c78948,(%rdi)
  401b8d:	c3                   	retq   

0000000000401b8e <setval_437>:
  401b8e:	c7 07 e1 48 89 c7    	movl   $0xc78948e1,(%rdi)
  401b94:	c3                   	retq   

0000000000401b95 <mid_farm>:
  401b95:	b8 01 00 00 00       	mov    $0x1,%eax
  401b9a:	c3                   	retq   

0000000000401b9b <add_xy>:
  401b9b:	48 8d 04 37          	lea    (%rdi,%rsi,1),%rax
  401b9f:	c3                   	retq   

0000000000401ba0 <addval_110>:
  401ba0:	8d 87 99 ca 90 90    	lea    -0x6f6f3567(%rdi),%eax
  401ba6:	c3                   	retq   

0000000000401ba7 <setval_455>:
  401ba7:	c7 07 89 c1 38 d2    	movl   $0xd238c189,(%rdi)
  401bad:	c3                   	retq   

0000000000401bae <setval_201>:
  401bae:	c7 07 89 ca c4 c9    	movl   $0xc9c4ca89,(%rdi)
  401bb4:	c3                   	retq   

0000000000401bb5 <setval_365>:
  401bb5:	c7 07 89 d6 08 db    	movl   $0xdb08d689,(%rdi)
  401bbb:	c3                   	retq   

0000000000401bbc <setval_204>:
  401bbc:	c7 07 8d d6 90 90    	movl   $0x9090d68d,(%rdi)
  401bc2:	c3                   	retq   

0000000000401bc3 <setval_120>:
  401bc3:	c7 07 48 89 e0 c1    	movl   $0xc1e08948,(%rdi)
  401bc9:	c3                   	retq   

0000000000401bca <setval_285>:
  401bca:	c7 07 c7 4a 89 e0    	movl   $0xe0894ac7,(%rdi)
  401bd0:	c3                   	retq   

0000000000401bd1 <setval_412>:
  401bd1:	c7 07 81 d6 38 db    	movl   $0xdb38d681,(%rdi)
  401bd7:	c3                   	retq   

0000000000401bd8 <addval_218>:
  401bd8:	8d 87 89 c1 60 c9    	lea    -0x369f3e77(%rdi),%eax
  401bde:	c3                   	retq   

0000000000401bdf <setval_255>:
  401bdf:	c7 07 af 09 c1 90    	movl   $0x90c109af,(%rdi)
  401be5:	c3                   	retq   

0000000000401be6 <getval_122>:
  401be6:	b8 48 89 e0 91       	mov    $0x91e08948,%eax
  401beb:	c3                   	retq   

0000000000401bec <setval_462>:
  401bec:	c7 07 89 c1 90 90    	movl   $0x9090c189,(%rdi)
  401bf2:	c3                   	retq   

0000000000401bf3 <addval_125>:
  401bf3:	8d 87 89 ca 00 d2    	lea    -0x2dff3577(%rdi),%eax
  401bf9:	c3                   	retq   

0000000000401bfa <getval_150>:
  401bfa:	b8 89 ca 20 c0       	mov    $0xc020ca89,%eax
  401bff:	c3                   	retq   

0000000000401c00 <getval_155>:
  401c00:	b8 a1 89 d6 c1       	mov    $0xc1d689a1,%eax
  401c05:	c3                   	retq   

0000000000401c06 <addval_144>:
  401c06:	8d 87 a9 c1 90 90    	lea    -0x6f6f3e57(%rdi),%eax
  401c0c:	c3                   	retq   

0000000000401c0d <addval_479>:
  401c0d:	8d 87 b7 89 d6 c7    	lea    -0x38297649(%rdi),%eax
  401c13:	c3                   	retq   

0000000000401c14 <addval_160>:
  401c14:	8d 87 09 c1 38 c0    	lea    -0x3fc73ef7(%rdi),%eax
  401c1a:	c3                   	retq   

0000000000401c1b <getval_426>:
  401c1b:	b8 99 c1 90 c3       	mov    $0xc390c199,%eax
  401c20:	c3                   	retq   

0000000000401c21 <getval_327>:
  401c21:	b8 89 d6 00 c0       	mov    $0xc000d689,%eax
  401c26:	c3                   	retq   

0000000000401c27 <addval_484>:
  401c27:	8d 87 89 c1 91 90    	lea    -0x6f6e3e77(%rdi),%eax
  401c2d:	c3                   	retq   

0000000000401c2e <addval_315>:
  401c2e:	8d 87 89 ca 48 c9    	lea    -0x36b73577(%rdi),%eax
  401c34:	c3                   	retq   

0000000000401c35 <setval_121>:
  401c35:	c7 07 48 89 e0 c2    	movl   $0xc2e08948,(%rdi)
  401c3b:	c3                   	retq   

0000000000401c3c <getval_131>:
  401c3c:	b8 48 81 e0 c3       	mov    $0xc3e08148,%eax
  401c41:	c3                   	retq   

0000000000401c42 <setval_375>:
  401c42:	c7 07 89 d6 48 d2    	movl   $0xd248d689,(%rdi)
  401c48:	c3                   	retq   

0000000000401c49 <getval_117>:
  401c49:	b8 89 ca 90 c3       	mov    $0xc390ca89,%eax
  401c4e:	c3                   	retq   

0000000000401c4f <addval_420>:
  401c4f:	8d 87 89 d6 20 d2    	lea    -0x2ddf2977(%rdi),%eax
  401c55:	c3                   	retq   

0000000000401c56 <getval_257>:
  401c56:	b8 8d ca 84 c9       	mov    $0xc984ca8d,%eax
  401c5b:	c3                   	retq   

0000000000401c5c <getval_304>:
  401c5c:	b8 48 89 e0 c3       	mov    $0xc3e08948,%eax
  401c61:	c3                   	retq   

0000000000401c62 <addval_492>:
  401c62:	8d 87 48 89 e0 c3    	lea    -0x3c1f76b8(%rdi),%eax
  401c68:	c3                   	retq   

0000000000401c69 <setval_105>:
  401c69:	c7 07 48 a9 e0 c3    	movl   $0xc3e0a948,(%rdi)
  401c6f:	c3                   	retq   

0000000000401c70 <getval_248>:
  401c70:	b8 81 ca 20 d2       	mov    $0xd220ca81,%eax
  401c75:	c3                   	retq   

0000000000401c76 <end_farm>:
  401c76:	b8 01 00 00 00       	mov    $0x1,%eax
  401c7b:	c3                   	retq   

0000000000401c7c <save_char>:
  401c7c:	8b 05 c2 44 20 00    	mov    0x2044c2(%rip),%eax        # 606144 <gets_cnt>
  401c82:	3d ff 03 00 00       	cmp    $0x3ff,%eax
  401c87:	7f 49                	jg     401cd2 <save_char+0x56>
  401c89:	8d 14 40             	lea    (%rax,%rax,2),%edx
  401c8c:	89 f9                	mov    %edi,%ecx
  401c8e:	c0 e9 04             	shr    $0x4,%cl
  401c91:	83 e1 0f             	and    $0xf,%ecx
  401c94:	0f b6 b1 70 38 40 00 	movzbl 0x403870(%rcx),%esi
  401c9b:	48 63 ca             	movslq %edx,%rcx
  401c9e:	40 88 b1 40 55 60 00 	mov    %sil,0x605540(%rcx)
  401ca5:	8d 4a 01             	lea    0x1(%rdx),%ecx
  401ca8:	83 e7 0f             	and    $0xf,%edi
  401cab:	0f b6 b7 70 38 40 00 	movzbl 0x403870(%rdi),%esi
  401cb2:	48 63 c9             	movslq %ecx,%rcx
  401cb5:	40 88 b1 40 55 60 00 	mov    %sil,0x605540(%rcx)
  401cbc:	83 c2 02             	add    $0x2,%edx
  401cbf:	48 63 d2             	movslq %edx,%rdx
  401cc2:	c6 82 40 55 60 00 20 	movb   $0x20,0x605540(%rdx)
  401cc9:	83 c0 01             	add    $0x1,%eax
  401ccc:	89 05 72 44 20 00    	mov    %eax,0x204472(%rip)        # 606144 <gets_cnt>
  401cd2:	f3 c3                	repz retq 

0000000000401cd4 <save_term>:
  401cd4:	8b 05 6a 44 20 00    	mov    0x20446a(%rip),%eax        # 606144 <gets_cnt>
  401cda:	8d 04 40             	lea    (%rax,%rax,2),%eax
  401cdd:	48 98                	cltq   
  401cdf:	c6 80 40 55 60 00 00 	movb   $0x0,0x605540(%rax)
  401ce6:	c3                   	retq   

0000000000401ce7 <check_fail>:
  401ce7:	48 83 ec 08          	sub    $0x8,%rsp
  401ceb:	0f be 15 56 44 20 00 	movsbl 0x204456(%rip),%edx        # 606148 <target_prefix>
  401cf2:	41 b8 40 55 60 00    	mov    $0x605540,%r8d
  401cf8:	8b 0d 1a 38 20 00    	mov    0x20381a(%rip),%ecx        # 605518 <check_level>
  401cfe:	be 6b 35 40 00       	mov    $0x40356b,%esi
  401d03:	bf 01 00 00 00       	mov    $0x1,%edi
  401d08:	b8 00 00 00 00       	mov    $0x0,%eax
  401d0d:	e8 0e f1 ff ff       	callq  400e20 <__printf_chk@plt>
  401d12:	bf 01 00 00 00       	mov    $0x1,%edi
  401d17:	e8 54 f1 ff ff       	callq  400e70 <exit@plt>

0000000000401d1c <Gets>:
  401d1c:	41 54                	push   %r12
  401d1e:	55                   	push   %rbp
  401d1f:	53                   	push   %rbx
  401d20:	49 89 fc             	mov    %rdi,%r12
  401d23:	c7 05 17 44 20 00 00 	movl   $0x0,0x204417(%rip)        # 606144 <gets_cnt>
  401d2a:	00 00 00 
  401d2d:	48 89 fb             	mov    %rdi,%rbx
  401d30:	eb 11                	jmp    401d43 <Gets+0x27>
  401d32:	48 8d 6b 01          	lea    0x1(%rbx),%rbp
  401d36:	88 03                	mov    %al,(%rbx)
  401d38:	0f b6 f8             	movzbl %al,%edi
  401d3b:	e8 3c ff ff ff       	callq  401c7c <save_char>
  401d40:	48 89 eb             	mov    %rbp,%rbx
  401d43:	48 8b 3d c6 37 20 00 	mov    0x2037c6(%rip),%rdi        # 605510 <infile>
  401d4a:	e8 a1 f0 ff ff       	callq  400df0 <_IO_getc@plt>
  401d4f:	83 f8 ff             	cmp    $0xffffffff,%eax
  401d52:	74 05                	je     401d59 <Gets+0x3d>
  401d54:	83 f8 0a             	cmp    $0xa,%eax
  401d57:	75 d9                	jne    401d32 <Gets+0x16>
  401d59:	c6 03 00             	movb   $0x0,(%rbx)
  401d5c:	b8 00 00 00 00       	mov    $0x0,%eax
  401d61:	e8 6e ff ff ff       	callq  401cd4 <save_term>
  401d66:	4c 89 e0             	mov    %r12,%rax
  401d69:	5b                   	pop    %rbx
  401d6a:	5d                   	pop    %rbp
  401d6b:	41 5c                	pop    %r12
  401d6d:	c3                   	retq   

0000000000401d6e <notify_server>:
  401d6e:	53                   	push   %rbx
  401d6f:	48 81 ec 10 40 00 00 	sub    $0x4010,%rsp
  401d76:	64 48 8b 04 25 28 00 	mov    %fs:0x28,%rax
  401d7d:	00 00 
  401d7f:	48 89 84 24 08 40 00 	mov    %rax,0x4008(%rsp)
  401d86:	00 
  401d87:	31 c0                	xor    %eax,%eax
  401d89:	83 3d 98 37 20 00 00 	cmpl   $0x0,0x203798(%rip)        # 605528 <is_checker>
  401d90:	0f 85 aa 01 00 00    	jne    401f40 <notify_server+0x1d2>
  401d96:	89 fb                	mov    %edi,%ebx
  401d98:	8b 05 a6 43 20 00    	mov    0x2043a6(%rip),%eax        # 606144 <gets_cnt>
  401d9e:	83 c0 64             	add    $0x64,%eax
  401da1:	3d 00 20 00 00       	cmp    $0x2000,%eax
  401da6:	7e 1e                	jle    401dc6 <notify_server+0x58>
  401da8:	be a0 36 40 00       	mov    $0x4036a0,%esi
  401dad:	bf 01 00 00 00       	mov    $0x1,%edi
  401db2:	b8 00 00 00 00       	mov    $0x0,%eax
  401db7:	e8 64 f0 ff ff       	callq  400e20 <__printf_chk@plt>
  401dbc:	bf 01 00 00 00       	mov    $0x1,%edi
  401dc1:	e8 aa f0 ff ff       	callq  400e70 <exit@plt>
  401dc6:	0f be 05 7b 43 20 00 	movsbl 0x20437b(%rip),%eax        # 606148 <target_prefix>
  401dcd:	83 3d d4 36 20 00 00 	cmpl   $0x0,0x2036d4(%rip)        # 6054a8 <notify>
  401dd4:	74 08                	je     401dde <notify_server+0x70>
  401dd6:	8b 15 44 37 20 00    	mov    0x203744(%rip),%edx        # 605520 <authkey>
  401ddc:	eb 05                	jmp    401de3 <notify_server+0x75>
  401dde:	ba ff ff ff ff       	mov    $0xffffffff,%edx
  401de3:	85 db                	test   %ebx,%ebx
  401de5:	74 08                	je     401def <notify_server+0x81>
  401de7:	41 b9 81 35 40 00    	mov    $0x403581,%r9d
  401ded:	eb 06                	jmp    401df5 <notify_server+0x87>
  401def:	41 b9 86 35 40 00    	mov    $0x403586,%r9d
  401df5:	68 40 55 60 00       	pushq  $0x605540
  401dfa:	56                   	push   %rsi
  401dfb:	50                   	push   %rax
  401dfc:	52                   	push   %rdx
  401dfd:	44 8b 05 64 33 20 00 	mov    0x203364(%rip),%r8d        # 605168 <target_id>
  401e04:	b9 8b 35 40 00       	mov    $0x40358b,%ecx
  401e09:	ba 00 20 00 00       	mov    $0x2000,%edx
  401e0e:	be 01 00 00 00       	mov    $0x1,%esi
  401e13:	48 8d 7c 24 20       	lea    0x20(%rsp),%rdi
  401e18:	b8 00 00 00 00       	mov    $0x0,%eax
  401e1d:	e8 7e f0 ff ff       	callq  400ea0 <__sprintf_chk@plt>
  401e22:	48 83 c4 20          	add    $0x20,%rsp
  401e26:	83 3d 7b 36 20 00 00 	cmpl   $0x0,0x20367b(%rip)        # 6054a8 <notify>
  401e2d:	0f 84 81 00 00 00    	je     401eb4 <notify_server+0x146>
  401e33:	4c 8d 8c 24 00 20 00 	lea    0x2000(%rsp),%r9
  401e3a:	00 
  401e3b:	41 b8 00 00 00 00    	mov    $0x0,%r8d
  401e41:	48 89 e1             	mov    %rsp,%rcx
  401e44:	48 8b 15 25 33 20 00 	mov    0x203325(%rip),%rdx        # 605170 <lab>
  401e4b:	48 8b 35 26 33 20 00 	mov    0x203326(%rip),%rsi        # 605178 <course>
  401e52:	48 8b 3d 07 33 20 00 	mov    0x203307(%rip),%rdi        # 605160 <user_id>
  401e59:	e8 0e 11 00 00       	callq  402f6c <driver_post>
  401e5e:	85 c0                	test   %eax,%eax
  401e60:	79 26                	jns    401e88 <notify_server+0x11a>
  401e62:	48 8d 94 24 00 20 00 	lea    0x2000(%rsp),%rdx
  401e69:	00 
  401e6a:	be a7 35 40 00       	mov    $0x4035a7,%esi
  401e6f:	bf 01 00 00 00       	mov    $0x1,%edi
  401e74:	b8 00 00 00 00       	mov    $0x0,%eax
  401e79:	e8 a2 ef ff ff       	callq  400e20 <__printf_chk@plt>
  401e7e:	bf 01 00 00 00       	mov    $0x1,%edi
  401e83:	e8 e8 ef ff ff       	callq  400e70 <exit@plt>
  401e88:	85 db                	test   %ebx,%ebx
  401e8a:	74 19                	je     401ea5 <notify_server+0x137>
  401e8c:	bf d0 36 40 00       	mov    $0x4036d0,%edi
  401e91:	e8 5a ee ff ff       	callq  400cf0 <puts@plt>
  401e96:	bf b3 35 40 00       	mov    $0x4035b3,%edi
  401e9b:	e8 50 ee ff ff       	callq  400cf0 <puts@plt>
  401ea0:	e9 9b 00 00 00       	jmpq   401f40 <notify_server+0x1d2>
  401ea5:	bf bd 35 40 00       	mov    $0x4035bd,%edi
  401eaa:	e8 41 ee ff ff       	callq  400cf0 <puts@plt>
  401eaf:	e9 8c 00 00 00       	jmpq   401f40 <notify_server+0x1d2>
  401eb4:	85 db                	test   %ebx,%ebx
  401eb6:	74 07                	je     401ebf <notify_server+0x151>
  401eb8:	ba 81 35 40 00       	mov    $0x403581,%edx
  401ebd:	eb 05                	jmp    401ec4 <notify_server+0x156>
  401ebf:	ba 86 35 40 00       	mov    $0x403586,%edx
  401ec4:	be 08 37 40 00       	mov    $0x403708,%esi
  401ec9:	bf 01 00 00 00       	mov    $0x1,%edi
  401ece:	b8 00 00 00 00       	mov    $0x0,%eax
  401ed3:	e8 48 ef ff ff       	callq  400e20 <__printf_chk@plt>
  401ed8:	48 8b 15 81 32 20 00 	mov    0x203281(%rip),%rdx        # 605160 <user_id>
  401edf:	be c4 35 40 00       	mov    $0x4035c4,%esi
  401ee4:	bf 01 00 00 00       	mov    $0x1,%edi
  401ee9:	b8 00 00 00 00       	mov    $0x0,%eax
  401eee:	e8 2d ef ff ff       	callq  400e20 <__printf_chk@plt>
  401ef3:	48 8b 15 7e 32 20 00 	mov    0x20327e(%rip),%rdx        # 605178 <course>
  401efa:	be d1 35 40 00       	mov    $0x4035d1,%esi
  401eff:	bf 01 00 00 00       	mov    $0x1,%edi
  401f04:	b8 00 00 00 00       	mov    $0x0,%eax
  401f09:	e8 12 ef ff ff       	callq  400e20 <__printf_chk@plt>
  401f0e:	48 8b 15 5b 32 20 00 	mov    0x20325b(%rip),%rdx        # 605170 <lab>
  401f15:	be dd 35 40 00       	mov    $0x4035dd,%esi
  401f1a:	bf 01 00 00 00       	mov    $0x1,%edi
  401f1f:	b8 00 00 00 00       	mov    $0x0,%eax
  401f24:	e8 f7 ee ff ff       	callq  400e20 <__printf_chk@plt>
  401f29:	48 89 e2             	mov    %rsp,%rdx
  401f2c:	be e6 35 40 00       	mov    $0x4035e6,%esi
  401f31:	bf 01 00 00 00       	mov    $0x1,%edi
  401f36:	b8 00 00 00 00       	mov    $0x0,%eax
  401f3b:	e8 e0 ee ff ff       	callq  400e20 <__printf_chk@plt>
  401f40:	48 8b 84 24 08 40 00 	mov    0x4008(%rsp),%rax
  401f47:	00 
  401f48:	64 48 33 04 25 28 00 	xor    %fs:0x28,%rax
  401f4f:	00 00 
  401f51:	74 05                	je     401f58 <notify_server+0x1ea>
  401f53:	e8 b8 ed ff ff       	callq  400d10 <__stack_chk_fail@plt>
  401f58:	48 81 c4 10 40 00 00 	add    $0x4010,%rsp
  401f5f:	5b                   	pop    %rbx
  401f60:	c3                   	retq   

0000000000401f61 <validate>:
  401f61:	53                   	push   %rbx
  401f62:	89 fb                	mov    %edi,%ebx
  401f64:	83 3d bd 35 20 00 00 	cmpl   $0x0,0x2035bd(%rip)        # 605528 <is_checker>
  401f6b:	74 6b                	je     401fd8 <validate+0x77>
  401f6d:	39 3d a9 35 20 00    	cmp    %edi,0x2035a9(%rip)        # 60551c <vlevel>
  401f73:	74 14                	je     401f89 <validate+0x28>
  401f75:	bf f2 35 40 00       	mov    $0x4035f2,%edi
  401f7a:	e8 71 ed ff ff       	callq  400cf0 <puts@plt>
  401f7f:	b8 00 00 00 00       	mov    $0x0,%eax
  401f84:	e8 5e fd ff ff       	callq  401ce7 <check_fail>
  401f89:	8b 15 89 35 20 00    	mov    0x203589(%rip),%edx        # 605518 <check_level>
  401f8f:	39 d7                	cmp    %edx,%edi
  401f91:	74 20                	je     401fb3 <validate+0x52>
  401f93:	89 f9                	mov    %edi,%ecx
  401f95:	be 30 37 40 00       	mov    $0x403730,%esi
  401f9a:	bf 01 00 00 00       	mov    $0x1,%edi
  401f9f:	b8 00 00 00 00       	mov    $0x0,%eax
  401fa4:	e8 77 ee ff ff       	callq  400e20 <__printf_chk@plt>
  401fa9:	b8 00 00 00 00       	mov    $0x0,%eax
  401fae:	e8 34 fd ff ff       	callq  401ce7 <check_fail>
  401fb3:	0f be 15 8e 41 20 00 	movsbl 0x20418e(%rip),%edx        # 606148 <target_prefix>
  401fba:	41 b8 40 55 60 00    	mov    $0x605540,%r8d
  401fc0:	89 f9                	mov    %edi,%ecx
  401fc2:	be 10 36 40 00       	mov    $0x403610,%esi
  401fc7:	bf 01 00 00 00       	mov    $0x1,%edi
  401fcc:	b8 00 00 00 00       	mov    $0x0,%eax
  401fd1:	e8 4a ee ff ff       	callq  400e20 <__printf_chk@plt>
  401fd6:	eb 49                	jmp    402021 <validate+0xc0>
  401fd8:	3b 3d 3e 35 20 00    	cmp    0x20353e(%rip),%edi        # 60551c <vlevel>
  401fde:	74 18                	je     401ff8 <validate+0x97>
  401fe0:	bf f2 35 40 00       	mov    $0x4035f2,%edi
  401fe5:	e8 06 ed ff ff       	callq  400cf0 <puts@plt>
  401fea:	89 de                	mov    %ebx,%esi
  401fec:	bf 00 00 00 00       	mov    $0x0,%edi
  401ff1:	e8 78 fd ff ff       	callq  401d6e <notify_server>
  401ff6:	eb 29                	jmp    402021 <validate+0xc0>
  401ff8:	0f be 0d 49 41 20 00 	movsbl 0x204149(%rip),%ecx        # 606148 <target_prefix>
  401fff:	89 fa                	mov    %edi,%edx
  402001:	be 58 37 40 00       	mov    $0x403758,%esi
  402006:	bf 01 00 00 00       	mov    $0x1,%edi
  40200b:	b8 00 00 00 00       	mov    $0x0,%eax
  402010:	e8 0b ee ff ff       	callq  400e20 <__printf_chk@plt>
  402015:	89 de                	mov    %ebx,%esi
  402017:	bf 01 00 00 00       	mov    $0x1,%edi
  40201c:	e8 4d fd ff ff       	callq  401d6e <notify_server>
  402021:	5b                   	pop    %rbx
  402022:	c3                   	retq   

0000000000402023 <fail>:
  402023:	48 83 ec 08          	sub    $0x8,%rsp
  402027:	83 3d fa 34 20 00 00 	cmpl   $0x0,0x2034fa(%rip)        # 605528 <is_checker>
  40202e:	74 0a                	je     40203a <fail+0x17>
  402030:	b8 00 00 00 00       	mov    $0x0,%eax
  402035:	e8 ad fc ff ff       	callq  401ce7 <check_fail>
  40203a:	89 fe                	mov    %edi,%esi
  40203c:	bf 00 00 00 00       	mov    $0x0,%edi
  402041:	e8 28 fd ff ff       	callq  401d6e <notify_server>
  402046:	48 83 c4 08          	add    $0x8,%rsp
  40204a:	c3                   	retq   

000000000040204b <bushandler>:
  40204b:	48 83 ec 08          	sub    $0x8,%rsp
  40204f:	83 3d d2 34 20 00 00 	cmpl   $0x0,0x2034d2(%rip)        # 605528 <is_checker>
  402056:	74 14                	je     40206c <bushandler+0x21>
  402058:	bf 25 36 40 00       	mov    $0x403625,%edi
  40205d:	e8 8e ec ff ff       	callq  400cf0 <puts@plt>
  402062:	b8 00 00 00 00       	mov    $0x0,%eax
  402067:	e8 7b fc ff ff       	callq  401ce7 <check_fail>
  40206c:	bf 90 37 40 00       	mov    $0x403790,%edi
  402071:	e8 7a ec ff ff       	callq  400cf0 <puts@plt>
  402076:	bf 2f 36 40 00       	mov    $0x40362f,%edi
  40207b:	e8 70 ec ff ff       	callq  400cf0 <puts@plt>
  402080:	be 00 00 00 00       	mov    $0x0,%esi
  402085:	bf 00 00 00 00       	mov    $0x0,%edi
  40208a:	e8 df fc ff ff       	callq  401d6e <notify_server>
  40208f:	bf 01 00 00 00       	mov    $0x1,%edi
  402094:	e8 d7 ed ff ff       	callq  400e70 <exit@plt>

0000000000402099 <seghandler>:
  402099:	48 83 ec 08          	sub    $0x8,%rsp
  40209d:	83 3d 84 34 20 00 00 	cmpl   $0x0,0x203484(%rip)        # 605528 <is_checker>
  4020a4:	74 14                	je     4020ba <seghandler+0x21>
  4020a6:	bf 45 36 40 00       	mov    $0x403645,%edi
  4020ab:	e8 40 ec ff ff       	callq  400cf0 <puts@plt>
  4020b0:	b8 00 00 00 00       	mov    $0x0,%eax
  4020b5:	e8 2d fc ff ff       	callq  401ce7 <check_fail>
  4020ba:	bf b0 37 40 00       	mov    $0x4037b0,%edi
  4020bf:	e8 2c ec ff ff       	callq  400cf0 <puts@plt>
  4020c4:	bf 2f 36 40 00       	mov    $0x40362f,%edi
  4020c9:	e8 22 ec ff ff       	callq  400cf0 <puts@plt>
  4020ce:	be 00 00 00 00       	mov    $0x0,%esi
  4020d3:	bf 00 00 00 00       	mov    $0x0,%edi
  4020d8:	e8 91 fc ff ff       	callq  401d6e <notify_server>
  4020dd:	bf 01 00 00 00       	mov    $0x1,%edi
  4020e2:	e8 89 ed ff ff       	callq  400e70 <exit@plt>

00000000004020e7 <illegalhandler>:
  4020e7:	48 83 ec 08          	sub    $0x8,%rsp
  4020eb:	83 3d 36 34 20 00 00 	cmpl   $0x0,0x203436(%rip)        # 605528 <is_checker>
  4020f2:	74 14                	je     402108 <illegalhandler+0x21>
  4020f4:	bf 58 36 40 00       	mov    $0x403658,%edi
  4020f9:	e8 f2 eb ff ff       	callq  400cf0 <puts@plt>
  4020fe:	b8 00 00 00 00       	mov    $0x0,%eax
  402103:	e8 df fb ff ff       	callq  401ce7 <check_fail>
  402108:	bf d8 37 40 00       	mov    $0x4037d8,%edi
  40210d:	e8 de eb ff ff       	callq  400cf0 <puts@plt>
  402112:	bf 2f 36 40 00       	mov    $0x40362f,%edi
  402117:	e8 d4 eb ff ff       	callq  400cf0 <puts@plt>
  40211c:	be 00 00 00 00       	mov    $0x0,%esi
  402121:	bf 00 00 00 00       	mov    $0x0,%edi
  402126:	e8 43 fc ff ff       	callq  401d6e <notify_server>
  40212b:	bf 01 00 00 00       	mov    $0x1,%edi
  402130:	e8 3b ed ff ff       	callq  400e70 <exit@plt>

0000000000402135 <sigalrmhandler>:
  402135:	48 83 ec 08          	sub    $0x8,%rsp
  402139:	83 3d e8 33 20 00 00 	cmpl   $0x0,0x2033e8(%rip)        # 605528 <is_checker>
  402140:	74 14                	je     402156 <sigalrmhandler+0x21>
  402142:	bf 6c 36 40 00       	mov    $0x40366c,%edi
  402147:	e8 a4 eb ff ff       	callq  400cf0 <puts@plt>
  40214c:	b8 00 00 00 00       	mov    $0x0,%eax
  402151:	e8 91 fb ff ff       	callq  401ce7 <check_fail>
  402156:	ba 05 00 00 00       	mov    $0x5,%edx
  40215b:	be 08 38 40 00       	mov    $0x403808,%esi
  402160:	bf 01 00 00 00       	mov    $0x1,%edi
  402165:	b8 00 00 00 00       	mov    $0x0,%eax
  40216a:	e8 b1 ec ff ff       	callq  400e20 <__printf_chk@plt>
  40216f:	be 00 00 00 00       	mov    $0x0,%esi
  402174:	bf 00 00 00 00       	mov    $0x0,%edi
  402179:	e8 f0 fb ff ff       	callq  401d6e <notify_server>
  40217e:	bf 01 00 00 00       	mov    $0x1,%edi
  402183:	e8 e8 ec ff ff       	callq  400e70 <exit@plt>

0000000000402188 <launch>:
  402188:	55                   	push   %rbp
  402189:	48 89 e5             	mov    %rsp,%rbp
  40218c:	48 83 ec 10          	sub    $0x10,%rsp
  402190:	48 89 fa             	mov    %rdi,%rdx
  402193:	64 48 8b 04 25 28 00 	mov    %fs:0x28,%rax
  40219a:	00 00 
  40219c:	48 89 45 f8          	mov    %rax,-0x8(%rbp)
  4021a0:	31 c0                	xor    %eax,%eax
  4021a2:	48 8d 47 1e          	lea    0x1e(%rdi),%rax
  4021a6:	48 83 e0 f0          	and    $0xfffffffffffffff0,%rax
  4021aa:	48 29 c4             	sub    %rax,%rsp
  4021ad:	48 8d 7c 24 0f       	lea    0xf(%rsp),%rdi
  4021b2:	48 83 e7 f0          	and    $0xfffffffffffffff0,%rdi
  4021b6:	be f4 00 00 00       	mov    $0xf4,%esi
  4021bb:	e8 70 eb ff ff       	callq  400d30 <memset@plt>
  4021c0:	48 8b 05 f9 32 20 00 	mov    0x2032f9(%rip),%rax        # 6054c0 <stdin@@GLIBC_2.2.5>
  4021c7:	48 39 05 42 33 20 00 	cmp    %rax,0x203342(%rip)        # 605510 <infile>
  4021ce:	75 14                	jne    4021e4 <launch+0x5c>
  4021d0:	be 74 36 40 00       	mov    $0x403674,%esi
  4021d5:	bf 01 00 00 00       	mov    $0x1,%edi
  4021da:	b8 00 00 00 00       	mov    $0x0,%eax
  4021df:	e8 3c ec ff ff       	callq  400e20 <__printf_chk@plt>
  4021e4:	c7 05 2e 33 20 00 00 	movl   $0x0,0x20332e(%rip)        # 60551c <vlevel>
  4021eb:	00 00 00 
  4021ee:	b8 00 00 00 00       	mov    $0x0,%eax
  4021f3:	e8 37 f9 ff ff       	callq  401b2f <test>
  4021f8:	83 3d 29 33 20 00 00 	cmpl   $0x0,0x203329(%rip)        # 605528 <is_checker>
  4021ff:	74 14                	je     402215 <launch+0x8d>
  402201:	bf 81 36 40 00       	mov    $0x403681,%edi
  402206:	e8 e5 ea ff ff       	callq  400cf0 <puts@plt>
  40220b:	b8 00 00 00 00       	mov    $0x0,%eax
  402210:	e8 d2 fa ff ff       	callq  401ce7 <check_fail>
  402215:	bf 8c 36 40 00       	mov    $0x40368c,%edi
  40221a:	e8 d1 ea ff ff       	callq  400cf0 <puts@plt>
  40221f:	48 8b 45 f8          	mov    -0x8(%rbp),%rax
  402223:	64 48 33 04 25 28 00 	xor    %fs:0x28,%rax
  40222a:	00 00 
  40222c:	74 05                	je     402233 <launch+0xab>
  40222e:	e8 dd ea ff ff       	callq  400d10 <__stack_chk_fail@plt>
  402233:	c9                   	leaveq 
  402234:	c3                   	retq   

0000000000402235 <stable_launch>:
  402235:	53                   	push   %rbx
  402236:	48 89 3d cb 32 20 00 	mov    %rdi,0x2032cb(%rip)        # 605508 <global_offset>
  40223d:	41 b9 00 00 00 00    	mov    $0x0,%r9d
  402243:	41 b8 00 00 00 00    	mov    $0x0,%r8d
  402249:	b9 32 01 00 00       	mov    $0x132,%ecx
  40224e:	ba 07 00 00 00       	mov    $0x7,%edx
  402253:	be 00 00 10 00       	mov    $0x100000,%esi
  402258:	bf 00 60 58 55       	mov    $0x55586000,%edi
  40225d:	e8 be ea ff ff       	callq  400d20 <mmap@plt>
  402262:	48 89 c3             	mov    %rax,%rbx
  402265:	48 3d 00 60 58 55    	cmp    $0x55586000,%rax
  40226b:	74 37                	je     4022a4 <stable_launch+0x6f>
  40226d:	be 00 00 10 00       	mov    $0x100000,%esi
  402272:	48 89 c7             	mov    %rax,%rdi
  402275:	e8 96 eb ff ff       	callq  400e10 <munmap@plt>
  40227a:	b9 00 60 58 55       	mov    $0x55586000,%ecx
  40227f:	ba 40 38 40 00       	mov    $0x403840,%edx
  402284:	be 01 00 00 00       	mov    $0x1,%esi
  402289:	48 8b 3d 50 32 20 00 	mov    0x203250(%rip),%rdi        # 6054e0 <stderr@@GLIBC_2.2.5>
  402290:	b8 00 00 00 00       	mov    $0x0,%eax
  402295:	e8 f6 eb ff ff       	callq  400e90 <__fprintf_chk@plt>
  40229a:	bf 01 00 00 00       	mov    $0x1,%edi
  40229f:	e8 cc eb ff ff       	callq  400e70 <exit@plt>
  4022a4:	48 8d 90 f8 ff 0f 00 	lea    0xffff8(%rax),%rdx
  4022ab:	48 89 15 9e 3e 20 00 	mov    %rdx,0x203e9e(%rip)        # 606150 <stack_top>
  4022b2:	48 89 e0             	mov    %rsp,%rax
  4022b5:	48 89 d4             	mov    %rdx,%rsp
  4022b8:	48 89 c2             	mov    %rax,%rdx
  4022bb:	48 89 15 3e 32 20 00 	mov    %rdx,0x20323e(%rip)        # 605500 <global_save_stack>
  4022c2:	48 8b 3d 3f 32 20 00 	mov    0x20323f(%rip),%rdi        # 605508 <global_offset>
  4022c9:	e8 ba fe ff ff       	callq  402188 <launch>
  4022ce:	48 8b 05 2b 32 20 00 	mov    0x20322b(%rip),%rax        # 605500 <global_save_stack>
  4022d5:	48 89 c4             	mov    %rax,%rsp
  4022d8:	be 00 00 10 00       	mov    $0x100000,%esi
  4022dd:	48 89 df             	mov    %rbx,%rdi
  4022e0:	e8 2b eb ff ff       	callq  400e10 <munmap@plt>
  4022e5:	5b                   	pop    %rbx
  4022e6:	c3                   	retq   

00000000004022e7 <rio_readinitb>:
  4022e7:	89 37                	mov    %esi,(%rdi)
  4022e9:	c7 47 04 00 00 00 00 	movl   $0x0,0x4(%rdi)
  4022f0:	48 8d 47 10          	lea    0x10(%rdi),%rax
  4022f4:	48 89 47 08          	mov    %rax,0x8(%rdi)
  4022f8:	c3                   	retq   

00000000004022f9 <sigalrm_handler>:
  4022f9:	48 83 ec 08          	sub    $0x8,%rsp
  4022fd:	b9 00 00 00 00       	mov    $0x0,%ecx
  402302:	ba 80 38 40 00       	mov    $0x403880,%edx
  402307:	be 01 00 00 00       	mov    $0x1,%esi
  40230c:	48 8b 3d cd 31 20 00 	mov    0x2031cd(%rip),%rdi        # 6054e0 <stderr@@GLIBC_2.2.5>
  402313:	b8 00 00 00 00       	mov    $0x0,%eax
  402318:	e8 73 eb ff ff       	callq  400e90 <__fprintf_chk@plt>
  40231d:	bf 01 00 00 00       	mov    $0x1,%edi
  402322:	e8 49 eb ff ff       	callq  400e70 <exit@plt>

0000000000402327 <rio_writen>:
  402327:	41 55                	push   %r13
  402329:	41 54                	push   %r12
  40232b:	55                   	push   %rbp
  40232c:	53                   	push   %rbx
  40232d:	48 83 ec 08          	sub    $0x8,%rsp
  402331:	41 89 fc             	mov    %edi,%r12d
  402334:	48 89 f5             	mov    %rsi,%rbp
  402337:	49 89 d5             	mov    %rdx,%r13
  40233a:	48 89 d3             	mov    %rdx,%rbx
  40233d:	eb 28                	jmp    402367 <rio_writen+0x40>
  40233f:	48 89 da             	mov    %rbx,%rdx
  402342:	48 89 ee             	mov    %rbp,%rsi
  402345:	44 89 e7             	mov    %r12d,%edi
  402348:	e8 b3 e9 ff ff       	callq  400d00 <write@plt>
  40234d:	48 85 c0             	test   %rax,%rax
  402350:	7f 0f                	jg     402361 <rio_writen+0x3a>
  402352:	e8 59 e9 ff ff       	callq  400cb0 <__errno_location@plt>
  402357:	83 38 04             	cmpl   $0x4,(%rax)
  40235a:	75 15                	jne    402371 <rio_writen+0x4a>
  40235c:	b8 00 00 00 00       	mov    $0x0,%eax
  402361:	48 29 c3             	sub    %rax,%rbx
  402364:	48 01 c5             	add    %rax,%rbp
  402367:	48 85 db             	test   %rbx,%rbx
  40236a:	75 d3                	jne    40233f <rio_writen+0x18>
  40236c:	4c 89 e8             	mov    %r13,%rax
  40236f:	eb 07                	jmp    402378 <rio_writen+0x51>
  402371:	48 c7 c0 ff ff ff ff 	mov    $0xffffffffffffffff,%rax
  402378:	48 83 c4 08          	add    $0x8,%rsp
  40237c:	5b                   	pop    %rbx
  40237d:	5d                   	pop    %rbp
  40237e:	41 5c                	pop    %r12
  402380:	41 5d                	pop    %r13
  402382:	c3                   	retq   

0000000000402383 <rio_read>:
  402383:	41 55                	push   %r13
  402385:	41 54                	push   %r12
  402387:	55                   	push   %rbp
  402388:	53                   	push   %rbx
  402389:	48 83 ec 08          	sub    $0x8,%rsp
  40238d:	48 89 fb             	mov    %rdi,%rbx
  402390:	49 89 f5             	mov    %rsi,%r13
  402393:	49 89 d4             	mov    %rdx,%r12
  402396:	eb 2e                	jmp    4023c6 <rio_read+0x43>
  402398:	48 8d 6b 10          	lea    0x10(%rbx),%rbp
  40239c:	8b 3b                	mov    (%rbx),%edi
  40239e:	ba 00 20 00 00       	mov    $0x2000,%edx
  4023a3:	48 89 ee             	mov    %rbp,%rsi
  4023a6:	e8 b5 e9 ff ff       	callq  400d60 <read@plt>
  4023ab:	89 43 04             	mov    %eax,0x4(%rbx)
  4023ae:	85 c0                	test   %eax,%eax
  4023b0:	79 0c                	jns    4023be <rio_read+0x3b>
  4023b2:	e8 f9 e8 ff ff       	callq  400cb0 <__errno_location@plt>
  4023b7:	83 38 04             	cmpl   $0x4,(%rax)
  4023ba:	74 0a                	je     4023c6 <rio_read+0x43>
  4023bc:	eb 37                	jmp    4023f5 <rio_read+0x72>
  4023be:	85 c0                	test   %eax,%eax
  4023c0:	74 3c                	je     4023fe <rio_read+0x7b>
  4023c2:	48 89 6b 08          	mov    %rbp,0x8(%rbx)
  4023c6:	8b 6b 04             	mov    0x4(%rbx),%ebp
  4023c9:	85 ed                	test   %ebp,%ebp
  4023cb:	7e cb                	jle    402398 <rio_read+0x15>
  4023cd:	89 e8                	mov    %ebp,%eax
  4023cf:	49 39 c4             	cmp    %rax,%r12
  4023d2:	77 03                	ja     4023d7 <rio_read+0x54>
  4023d4:	44 89 e5             	mov    %r12d,%ebp
  4023d7:	4c 63 e5             	movslq %ebp,%r12
  4023da:	48 8b 73 08          	mov    0x8(%rbx),%rsi
  4023de:	4c 89 e2             	mov    %r12,%rdx
  4023e1:	4c 89 ef             	mov    %r13,%rdi
  4023e4:	e8 d7 e9 ff ff       	callq  400dc0 <memcpy@plt>
  4023e9:	4c 01 63 08          	add    %r12,0x8(%rbx)
  4023ed:	29 6b 04             	sub    %ebp,0x4(%rbx)
  4023f0:	4c 89 e0             	mov    %r12,%rax
  4023f3:	eb 0e                	jmp    402403 <rio_read+0x80>
  4023f5:	48 c7 c0 ff ff ff ff 	mov    $0xffffffffffffffff,%rax
  4023fc:	eb 05                	jmp    402403 <rio_read+0x80>
  4023fe:	b8 00 00 00 00       	mov    $0x0,%eax
  402403:	48 83 c4 08          	add    $0x8,%rsp
  402407:	5b                   	pop    %rbx
  402408:	5d                   	pop    %rbp
  402409:	41 5c                	pop    %r12
  40240b:	41 5d                	pop    %r13
  40240d:	c3                   	retq   

000000000040240e <rio_readlineb>:
  40240e:	41 55                	push   %r13
  402410:	41 54                	push   %r12
  402412:	55                   	push   %rbp
  402413:	53                   	push   %rbx
  402414:	48 83 ec 18          	sub    $0x18,%rsp
  402418:	49 89 fd             	mov    %rdi,%r13
  40241b:	48 89 f5             	mov    %rsi,%rbp
  40241e:	49 89 d4             	mov    %rdx,%r12
  402421:	64 48 8b 04 25 28 00 	mov    %fs:0x28,%rax
  402428:	00 00 
  40242a:	48 89 44 24 08       	mov    %rax,0x8(%rsp)
  40242f:	31 c0                	xor    %eax,%eax
  402431:	bb 01 00 00 00       	mov    $0x1,%ebx
  402436:	eb 3f                	jmp    402477 <rio_readlineb+0x69>
  402438:	ba 01 00 00 00       	mov    $0x1,%edx
  40243d:	48 8d 74 24 07       	lea    0x7(%rsp),%rsi
  402442:	4c 89 ef             	mov    %r13,%rdi
  402445:	e8 39 ff ff ff       	callq  402383 <rio_read>
  40244a:	83 f8 01             	cmp    $0x1,%eax
  40244d:	75 15                	jne    402464 <rio_readlineb+0x56>
  40244f:	48 8d 45 01          	lea    0x1(%rbp),%rax
  402453:	0f b6 54 24 07       	movzbl 0x7(%rsp),%edx
  402458:	88 55 00             	mov    %dl,0x0(%rbp)
  40245b:	80 7c 24 07 0a       	cmpb   $0xa,0x7(%rsp)
  402460:	75 0e                	jne    402470 <rio_readlineb+0x62>
  402462:	eb 1a                	jmp    40247e <rio_readlineb+0x70>
  402464:	85 c0                	test   %eax,%eax
  402466:	75 22                	jne    40248a <rio_readlineb+0x7c>
  402468:	48 83 fb 01          	cmp    $0x1,%rbx
  40246c:	75 13                	jne    402481 <rio_readlineb+0x73>
  40246e:	eb 23                	jmp    402493 <rio_readlineb+0x85>
  402470:	48 83 c3 01          	add    $0x1,%rbx
  402474:	48 89 c5             	mov    %rax,%rbp
  402477:	4c 39 e3             	cmp    %r12,%rbx
  40247a:	72 bc                	jb     402438 <rio_readlineb+0x2a>
  40247c:	eb 03                	jmp    402481 <rio_readlineb+0x73>
  40247e:	48 89 c5             	mov    %rax,%rbp
  402481:	c6 45 00 00          	movb   $0x0,0x0(%rbp)
  402485:	48 89 d8             	mov    %rbx,%rax
  402488:	eb 0e                	jmp    402498 <rio_readlineb+0x8a>
  40248a:	48 c7 c0 ff ff ff ff 	mov    $0xffffffffffffffff,%rax
  402491:	eb 05                	jmp    402498 <rio_readlineb+0x8a>
  402493:	b8 00 00 00 00       	mov    $0x0,%eax
  402498:	48 8b 4c 24 08       	mov    0x8(%rsp),%rcx
  40249d:	64 48 33 0c 25 28 00 	xor    %fs:0x28,%rcx
  4024a4:	00 00 
  4024a6:	74 05                	je     4024ad <rio_readlineb+0x9f>
  4024a8:	e8 63 e8 ff ff       	callq  400d10 <__stack_chk_fail@plt>
  4024ad:	48 83 c4 18          	add    $0x18,%rsp
  4024b1:	5b                   	pop    %rbx
  4024b2:	5d                   	pop    %rbp
  4024b3:	41 5c                	pop    %r12
  4024b5:	41 5d                	pop    %r13
  4024b7:	c3                   	retq   

00000000004024b8 <urlencode>:
  4024b8:	41 54                	push   %r12
  4024ba:	55                   	push   %rbp
  4024bb:	53                   	push   %rbx
  4024bc:	48 83 ec 10          	sub    $0x10,%rsp
  4024c0:	48 89 fb             	mov    %rdi,%rbx
  4024c3:	48 89 f5             	mov    %rsi,%rbp
  4024c6:	64 48 8b 04 25 28 00 	mov    %fs:0x28,%rax
  4024cd:	00 00 
  4024cf:	48 89 44 24 08       	mov    %rax,0x8(%rsp)
  4024d4:	31 c0                	xor    %eax,%eax
  4024d6:	48 c7 c1 ff ff ff ff 	mov    $0xffffffffffffffff,%rcx
  4024dd:	f2 ae                	repnz scas %es:(%rdi),%al
  4024df:	48 f7 d1             	not    %rcx
  4024e2:	8d 41 ff             	lea    -0x1(%rcx),%eax
  4024e5:	e9 aa 00 00 00       	jmpq   402594 <urlencode+0xdc>
  4024ea:	44 0f b6 03          	movzbl (%rbx),%r8d
  4024ee:	41 80 f8 2a          	cmp    $0x2a,%r8b
  4024f2:	0f 94 c2             	sete   %dl
  4024f5:	41 80 f8 2d          	cmp    $0x2d,%r8b
  4024f9:	0f 94 c0             	sete   %al
  4024fc:	08 c2                	or     %al,%dl
  4024fe:	75 24                	jne    402524 <urlencode+0x6c>
  402500:	41 80 f8 2e          	cmp    $0x2e,%r8b
  402504:	74 1e                	je     402524 <urlencode+0x6c>
  402506:	41 80 f8 5f          	cmp    $0x5f,%r8b
  40250a:	74 18                	je     402524 <urlencode+0x6c>
  40250c:	41 8d 40 d0          	lea    -0x30(%r8),%eax
  402510:	3c 09                	cmp    $0x9,%al
  402512:	76 10                	jbe    402524 <urlencode+0x6c>
  402514:	41 8d 40 bf          	lea    -0x41(%r8),%eax
  402518:	3c 19                	cmp    $0x19,%al
  40251a:	76 08                	jbe    402524 <urlencode+0x6c>
  40251c:	41 8d 40 9f          	lea    -0x61(%r8),%eax
  402520:	3c 19                	cmp    $0x19,%al
  402522:	77 0a                	ja     40252e <urlencode+0x76>
  402524:	44 88 45 00          	mov    %r8b,0x0(%rbp)
  402528:	48 8d 6d 01          	lea    0x1(%rbp),%rbp
  40252c:	eb 5f                	jmp    40258d <urlencode+0xd5>
  40252e:	41 80 f8 20          	cmp    $0x20,%r8b
  402532:	75 0a                	jne    40253e <urlencode+0x86>
  402534:	c6 45 00 2b          	movb   $0x2b,0x0(%rbp)
  402538:	48 8d 6d 01          	lea    0x1(%rbp),%rbp
  40253c:	eb 4f                	jmp    40258d <urlencode+0xd5>
  40253e:	41 8d 40 e0          	lea    -0x20(%r8),%eax
  402542:	3c 5f                	cmp    $0x5f,%al
  402544:	0f 96 c2             	setbe  %dl
  402547:	41 80 f8 09          	cmp    $0x9,%r8b
  40254b:	0f 94 c0             	sete   %al
  40254e:	08 c2                	or     %al,%dl
  402550:	74 50                	je     4025a2 <urlencode+0xea>
  402552:	45 0f b6 c0          	movzbl %r8b,%r8d
  402556:	b9 38 39 40 00       	mov    $0x403938,%ecx
  40255b:	ba 08 00 00 00       	mov    $0x8,%edx
  402560:	be 01 00 00 00       	mov    $0x1,%esi
  402565:	48 89 e7             	mov    %rsp,%rdi
  402568:	b8 00 00 00 00       	mov    $0x0,%eax
  40256d:	e8 2e e9 ff ff       	callq  400ea0 <__sprintf_chk@plt>
  402572:	0f b6 04 24          	movzbl (%rsp),%eax
  402576:	88 45 00             	mov    %al,0x0(%rbp)
  402579:	0f b6 44 24 01       	movzbl 0x1(%rsp),%eax
  40257e:	88 45 01             	mov    %al,0x1(%rbp)
  402581:	0f b6 44 24 02       	movzbl 0x2(%rsp),%eax
  402586:	88 45 02             	mov    %al,0x2(%rbp)
  402589:	48 8d 6d 03          	lea    0x3(%rbp),%rbp
  40258d:	48 83 c3 01          	add    $0x1,%rbx
  402591:	44 89 e0             	mov    %r12d,%eax
  402594:	44 8d 60 ff          	lea    -0x1(%rax),%r12d
  402598:	85 c0                	test   %eax,%eax
  40259a:	0f 85 4a ff ff ff    	jne    4024ea <urlencode+0x32>
  4025a0:	eb 05                	jmp    4025a7 <urlencode+0xef>
  4025a2:	b8 ff ff ff ff       	mov    $0xffffffff,%eax
  4025a7:	48 8b 74 24 08       	mov    0x8(%rsp),%rsi
  4025ac:	64 48 33 34 25 28 00 	xor    %fs:0x28,%rsi
  4025b3:	00 00 
  4025b5:	74 05                	je     4025bc <urlencode+0x104>
  4025b7:	e8 54 e7 ff ff       	callq  400d10 <__stack_chk_fail@plt>
  4025bc:	48 83 c4 10          	add    $0x10,%rsp
  4025c0:	5b                   	pop    %rbx
  4025c1:	5d                   	pop    %rbp
  4025c2:	41 5c                	pop    %r12
  4025c4:	c3                   	retq   

00000000004025c5 <submitr>:
  4025c5:	41 57                	push   %r15
  4025c7:	41 56                	push   %r14
  4025c9:	41 55                	push   %r13
  4025cb:	41 54                	push   %r12
  4025cd:	55                   	push   %rbp
  4025ce:	53                   	push   %rbx
  4025cf:	48 81 ec 58 a0 00 00 	sub    $0xa058,%rsp
  4025d6:	49 89 fd             	mov    %rdi,%r13
  4025d9:	89 74 24 0c          	mov    %esi,0xc(%rsp)
  4025dd:	48 89 14 24          	mov    %rdx,(%rsp)
  4025e1:	49 89 ce             	mov    %rcx,%r14
  4025e4:	4d 89 c7             	mov    %r8,%r15
  4025e7:	4d 89 cc             	mov    %r9,%r12
  4025ea:	48 8b 9c 24 90 a0 00 	mov    0xa090(%rsp),%rbx
  4025f1:	00 
  4025f2:	64 48 8b 04 25 28 00 	mov    %fs:0x28,%rax
  4025f9:	00 00 
  4025fb:	48 89 84 24 48 a0 00 	mov    %rax,0xa048(%rsp)
  402602:	00 
  402603:	31 c0                	xor    %eax,%eax
  402605:	c7 44 24 1c 00 00 00 	movl   $0x0,0x1c(%rsp)
  40260c:	00 
  40260d:	ba 00 00 00 00       	mov    $0x0,%edx
  402612:	be 01 00 00 00       	mov    $0x1,%esi
  402617:	bf 02 00 00 00       	mov    $0x2,%edi
  40261c:	e8 8f e8 ff ff       	callq  400eb0 <socket@plt>
  402621:	85 c0                	test   %eax,%eax
  402623:	79 4e                	jns    402673 <submitr+0xae>
  402625:	48 b8 45 72 72 6f 72 	movabs $0x43203a726f727245,%rax
  40262c:	3a 20 43 
  40262f:	48 89 03             	mov    %rax,(%rbx)
  402632:	48 b8 6c 69 65 6e 74 	movabs $0x6e7520746e65696c,%rax
  402639:	20 75 6e 
  40263c:	48 89 43 08          	mov    %rax,0x8(%rbx)
  402640:	48 b8 61 62 6c 65 20 	movabs $0x206f7420656c6261,%rax
  402647:	74 6f 20 
  40264a:	48 89 43 10          	mov    %rax,0x10(%rbx)
  40264e:	48 b8 63 72 65 61 74 	movabs $0x7320657461657263,%rax
  402655:	65 20 73 
  402658:	48 89 43 18          	mov    %rax,0x18(%rbx)
  40265c:	c7 43 20 6f 63 6b 65 	movl   $0x656b636f,0x20(%rbx)
  402663:	66 c7 43 24 74 00    	movw   $0x74,0x24(%rbx)
  402669:	b8 ff ff ff ff       	mov    $0xffffffff,%eax
  40266e:	e9 b3 06 00 00       	jmpq   402d26 <submitr+0x761>
  402673:	89 c5                	mov    %eax,%ebp
  402675:	4c 89 ef             	mov    %r13,%rdi
  402678:	e8 13 e7 ff ff       	callq  400d90 <gethostbyname@plt>
  40267d:	48 85 c0             	test   %rax,%rax
  402680:	75 75                	jne    4026f7 <submitr+0x132>
  402682:	48 b8 45 72 72 6f 72 	movabs $0x44203a726f727245,%rax
  402689:	3a 20 44 
  40268c:	48 89 03             	mov    %rax,(%rbx)
  40268f:	48 b8 4e 53 20 69 73 	movabs $0x6e7520736920534e,%rax
  402696:	20 75 6e 
  402699:	48 89 43 08          	mov    %rax,0x8(%rbx)
  40269d:	48 b8 61 62 6c 65 20 	movabs $0x206f7420656c6261,%rax
  4026a4:	74 6f 20 
  4026a7:	48 89 43 10          	mov    %rax,0x10(%rbx)
  4026ab:	48 b8 72 65 73 6f 6c 	movabs $0x2065766c6f736572,%rax
  4026b2:	76 65 20 
  4026b5:	48 89 43 18          	mov    %rax,0x18(%rbx)
  4026b9:	48 b8 41 75 74 6f 6c 	movabs $0x2062616c6f747541,%rax
  4026c0:	61 62 20 
  4026c3:	48 89 43 20          	mov    %rax,0x20(%rbx)
  4026c7:	48 b8 73 65 72 76 65 	movabs $0x6120726576726573,%rax
  4026ce:	72 20 61 
  4026d1:	48 89 43 28          	mov    %rax,0x28(%rbx)
  4026d5:	c7 43 30 64 64 72 65 	movl   $0x65726464,0x30(%rbx)
  4026dc:	66 c7 43 34 73 73    	movw   $0x7373,0x34(%rbx)
  4026e2:	c6 43 36 00          	movb   $0x0,0x36(%rbx)
  4026e6:	89 ef                	mov    %ebp,%edi
  4026e8:	e8 63 e6 ff ff       	callq  400d50 <close@plt>
  4026ed:	b8 ff ff ff ff       	mov    $0xffffffff,%eax
  4026f2:	e9 2f 06 00 00       	jmpq   402d26 <submitr+0x761>
  4026f7:	48 c7 44 24 20 00 00 	movq   $0x0,0x20(%rsp)
  4026fe:	00 00 
  402700:	48 c7 44 24 28 00 00 	movq   $0x0,0x28(%rsp)
  402707:	00 00 
  402709:	66 c7 44 24 20 02 00 	movw   $0x2,0x20(%rsp)
  402710:	48 63 50 14          	movslq 0x14(%rax),%rdx
  402714:	48 8b 40 18          	mov    0x18(%rax),%rax
  402718:	48 8b 30             	mov    (%rax),%rsi
  40271b:	48 8d 7c 24 24       	lea    0x24(%rsp),%rdi
  402720:	b9 0c 00 00 00       	mov    $0xc,%ecx
  402725:	e8 76 e6 ff ff       	callq  400da0 <__memmove_chk@plt>
  40272a:	0f b7 44 24 0c       	movzwl 0xc(%rsp),%eax
  40272f:	66 c1 c8 08          	ror    $0x8,%ax
  402733:	66 89 44 24 22       	mov    %ax,0x22(%rsp)
  402738:	ba 10 00 00 00       	mov    $0x10,%edx
  40273d:	48 8d 74 24 20       	lea    0x20(%rsp),%rsi
  402742:	89 ef                	mov    %ebp,%edi
  402744:	e8 37 e7 ff ff       	callq  400e80 <connect@plt>
  402749:	85 c0                	test   %eax,%eax
  40274b:	79 67                	jns    4027b4 <submitr+0x1ef>
  40274d:	48 b8 45 72 72 6f 72 	movabs $0x55203a726f727245,%rax
  402754:	3a 20 55 
  402757:	48 89 03             	mov    %rax,(%rbx)
  40275a:	48 b8 6e 61 62 6c 65 	movabs $0x6f7420656c62616e,%rax
  402761:	20 74 6f 
  402764:	48 89 43 08          	mov    %rax,0x8(%rbx)
  402768:	48 b8 20 63 6f 6e 6e 	movabs $0x7463656e6e6f6320,%rax
  40276f:	65 63 74 
  402772:	48 89 43 10          	mov    %rax,0x10(%rbx)
  402776:	48 b8 20 74 6f 20 74 	movabs $0x20656874206f7420,%rax
  40277d:	68 65 20 
  402780:	48 89 43 18          	mov    %rax,0x18(%rbx)
  402784:	48 b8 41 75 74 6f 6c 	movabs $0x2062616c6f747541,%rax
  40278b:	61 62 20 
  40278e:	48 89 43 20          	mov    %rax,0x20(%rbx)
  402792:	c7 43 28 73 65 72 76 	movl   $0x76726573,0x28(%rbx)
  402799:	66 c7 43 2c 65 72    	movw   $0x7265,0x2c(%rbx)
  40279f:	c6 43 2e 00          	movb   $0x0,0x2e(%rbx)
  4027a3:	89 ef                	mov    %ebp,%edi
  4027a5:	e8 a6 e5 ff ff       	callq  400d50 <close@plt>
  4027aa:	b8 ff ff ff ff       	mov    $0xffffffff,%eax
  4027af:	e9 72 05 00 00       	jmpq   402d26 <submitr+0x761>
  4027b4:	48 c7 c6 ff ff ff ff 	mov    $0xffffffffffffffff,%rsi
  4027bb:	b8 00 00 00 00       	mov    $0x0,%eax
  4027c0:	48 89 f1             	mov    %rsi,%rcx
  4027c3:	4c 89 e7             	mov    %r12,%rdi
  4027c6:	f2 ae                	repnz scas %es:(%rdi),%al
  4027c8:	48 f7 d1             	not    %rcx
  4027cb:	48 89 ca             	mov    %rcx,%rdx
  4027ce:	48 89 f1             	mov    %rsi,%rcx
  4027d1:	48 8b 3c 24          	mov    (%rsp),%rdi
  4027d5:	f2 ae                	repnz scas %es:(%rdi),%al
  4027d7:	48 f7 d1             	not    %rcx
  4027da:	49 89 c8             	mov    %rcx,%r8
  4027dd:	48 89 f1             	mov    %rsi,%rcx
  4027e0:	4c 89 f7             	mov    %r14,%rdi
  4027e3:	f2 ae                	repnz scas %es:(%rdi),%al
  4027e5:	48 f7 d1             	not    %rcx
  4027e8:	4d 8d 44 08 fe       	lea    -0x2(%r8,%rcx,1),%r8
  4027ed:	48 89 f1             	mov    %rsi,%rcx
  4027f0:	4c 89 ff             	mov    %r15,%rdi
  4027f3:	f2 ae                	repnz scas %es:(%rdi),%al
  4027f5:	48 89 c8             	mov    %rcx,%rax
  4027f8:	48 f7 d0             	not    %rax
  4027fb:	49 8d 4c 00 ff       	lea    -0x1(%r8,%rax,1),%rcx
  402800:	48 8d 44 52 fd       	lea    -0x3(%rdx,%rdx,2),%rax
  402805:	48 8d 84 01 80 00 00 	lea    0x80(%rcx,%rax,1),%rax
  40280c:	00 
  40280d:	48 3d 00 20 00 00    	cmp    $0x2000,%rax
  402813:	76 72                	jbe    402887 <submitr+0x2c2>
  402815:	48 b8 45 72 72 6f 72 	movabs $0x52203a726f727245,%rax
  40281c:	3a 20 52 
  40281f:	48 89 03             	mov    %rax,(%rbx)
  402822:	48 b8 65 73 75 6c 74 	movabs $0x747320746c757365,%rax
  402829:	20 73 74 
  40282c:	48 89 43 08          	mov    %rax,0x8(%rbx)
  402830:	48 b8 72 69 6e 67 20 	movabs $0x6f6f7420676e6972,%rax
  402837:	74 6f 6f 
  40283a:	48 89 43 10          	mov    %rax,0x10(%rbx)
  40283e:	48 b8 20 6c 61 72 67 	movabs $0x202e656772616c20,%rax
  402845:	65 2e 20 
  402848:	48 89 43 18          	mov    %rax,0x18(%rbx)
  40284c:	48 b8 49 6e 63 72 65 	movabs $0x6573616572636e49,%rax
  402853:	61 73 65 
  402856:	48 89 43 20          	mov    %rax,0x20(%rbx)
  40285a:	48 b8 20 53 55 42 4d 	movabs $0x5254494d42555320,%rax
  402861:	49 54 52 
  402864:	48 89 43 28          	mov    %rax,0x28(%rbx)
  402868:	48 b8 5f 4d 41 58 42 	movabs $0x46554258414d5f,%rax
  40286f:	55 46 00 
  402872:	48 89 43 30          	mov    %rax,0x30(%rbx)
  402876:	89 ef                	mov    %ebp,%edi
  402878:	e8 d3 e4 ff ff       	callq  400d50 <close@plt>
  40287d:	b8 ff ff ff ff       	mov    $0xffffffff,%eax
  402882:	e9 9f 04 00 00       	jmpq   402d26 <submitr+0x761>
  402887:	48 8d b4 24 40 40 00 	lea    0x4040(%rsp),%rsi
  40288e:	00 
  40288f:	b9 00 04 00 00       	mov    $0x400,%ecx
  402894:	b8 00 00 00 00       	mov    $0x0,%eax
  402899:	48 89 f7             	mov    %rsi,%rdi
  40289c:	f3 48 ab             	rep stos %rax,%es:(%rdi)
  40289f:	4c 89 e7             	mov    %r12,%rdi
  4028a2:	e8 11 fc ff ff       	callq  4024b8 <urlencode>
  4028a7:	85 c0                	test   %eax,%eax
  4028a9:	0f 89 8a 00 00 00    	jns    402939 <submitr+0x374>
  4028af:	48 b8 45 72 72 6f 72 	movabs $0x52203a726f727245,%rax
  4028b6:	3a 20 52 
  4028b9:	48 89 03             	mov    %rax,(%rbx)
  4028bc:	48 b8 65 73 75 6c 74 	movabs $0x747320746c757365,%rax
  4028c3:	20 73 74 
  4028c6:	48 89 43 08          	mov    %rax,0x8(%rbx)
  4028ca:	48 b8 72 69 6e 67 20 	movabs $0x6e6f6320676e6972,%rax
  4028d1:	63 6f 6e 
  4028d4:	48 89 43 10          	mov    %rax,0x10(%rbx)
  4028d8:	48 b8 74 61 69 6e 73 	movabs $0x6e6120736e696174,%rax
  4028df:	20 61 6e 
  4028e2:	48 89 43 18          	mov    %rax,0x18(%rbx)
  4028e6:	48 b8 20 69 6c 6c 65 	movabs $0x6c6167656c6c6920,%rax
  4028ed:	67 61 6c 
  4028f0:	48 89 43 20          	mov    %rax,0x20(%rbx)
  4028f4:	48 b8 20 6f 72 20 75 	movabs $0x72706e7520726f20,%rax
  4028fb:	6e 70 72 
  4028fe:	48 89 43 28          	mov    %rax,0x28(%rbx)
  402902:	48 b8 69 6e 74 61 62 	movabs $0x20656c6261746e69,%rax
  402909:	6c 65 20 
  40290c:	48 89 43 30          	mov    %rax,0x30(%rbx)
  402910:	48 b8 63 68 61 72 61 	movabs $0x6574636172616863,%rax
  402917:	63 74 65 
  40291a:	48 89 43 38          	mov    %rax,0x38(%rbx)
  40291e:	66 c7 43 40 72 2e    	movw   $0x2e72,0x40(%rbx)
  402924:	c6 43 42 00          	movb   $0x0,0x42(%rbx)
  402928:	89 ef                	mov    %ebp,%edi
  40292a:	e8 21 e4 ff ff       	callq  400d50 <close@plt>
  40292f:	b8 ff ff ff ff       	mov    $0xffffffff,%eax
  402934:	e9 ed 03 00 00       	jmpq   402d26 <submitr+0x761>
  402939:	4c 8d a4 24 40 20 00 	lea    0x2040(%rsp),%r12
  402940:	00 
  402941:	48 83 ec 08          	sub    $0x8,%rsp
  402945:	41 55                	push   %r13
  402947:	48 8d 84 24 50 40 00 	lea    0x4050(%rsp),%rax
  40294e:	00 
  40294f:	50                   	push   %rax
  402950:	41 56                	push   %r14
  402952:	4d 89 f9             	mov    %r15,%r9
  402955:	4c 8b 44 24 20       	mov    0x20(%rsp),%r8
  40295a:	b9 a8 38 40 00       	mov    $0x4038a8,%ecx
  40295f:	ba 00 20 00 00       	mov    $0x2000,%edx
  402964:	be 01 00 00 00       	mov    $0x1,%esi
  402969:	4c 89 e7             	mov    %r12,%rdi
  40296c:	b8 00 00 00 00       	mov    $0x0,%eax
  402971:	e8 2a e5 ff ff       	callq  400ea0 <__sprintf_chk@plt>
  402976:	b8 00 00 00 00       	mov    $0x0,%eax
  40297b:	48 c7 c1 ff ff ff ff 	mov    $0xffffffffffffffff,%rcx
  402982:	4c 89 e7             	mov    %r12,%rdi
  402985:	f2 ae                	repnz scas %es:(%rdi),%al
  402987:	48 f7 d1             	not    %rcx
  40298a:	48 8d 51 ff          	lea    -0x1(%rcx),%rdx
  40298e:	48 83 c4 20          	add    $0x20,%rsp
  402992:	4c 89 e6             	mov    %r12,%rsi
  402995:	89 ef                	mov    %ebp,%edi
  402997:	e8 8b f9 ff ff       	callq  402327 <rio_writen>
  40299c:	48 85 c0             	test   %rax,%rax
  40299f:	79 6b                	jns    402a0c <submitr+0x447>
  4029a1:	48 b8 45 72 72 6f 72 	movabs $0x43203a726f727245,%rax
  4029a8:	3a 20 43 
  4029ab:	48 89 03             	mov    %rax,(%rbx)
  4029ae:	48 b8 6c 69 65 6e 74 	movabs $0x6e7520746e65696c,%rax
  4029b5:	20 75 6e 
  4029b8:	48 89 43 08          	mov    %rax,0x8(%rbx)
  4029bc:	48 b8 61 62 6c 65 20 	movabs $0x206f7420656c6261,%rax
  4029c3:	74 6f 20 
  4029c6:	48 89 43 10          	mov    %rax,0x10(%rbx)
  4029ca:	48 b8 77 72 69 74 65 	movabs $0x6f74206574697277,%rax
  4029d1:	20 74 6f 
  4029d4:	48 89 43 18          	mov    %rax,0x18(%rbx)
  4029d8:	48 b8 20 74 68 65 20 	movabs $0x7475412065687420,%rax
  4029df:	41 75 74 
  4029e2:	48 89 43 20          	mov    %rax,0x20(%rbx)
  4029e6:	48 b8 6f 6c 61 62 20 	movabs $0x7265732062616c6f,%rax
  4029ed:	73 65 72 
  4029f0:	48 89 43 28          	mov    %rax,0x28(%rbx)
  4029f4:	c7 43 30 76 65 72 00 	movl   $0x726576,0x30(%rbx)
  4029fb:	89 ef                	mov    %ebp,%edi
  4029fd:	e8 4e e3 ff ff       	callq  400d50 <close@plt>
  402a02:	b8 ff ff ff ff       	mov    $0xffffffff,%eax
  402a07:	e9 1a 03 00 00       	jmpq   402d26 <submitr+0x761>
  402a0c:	89 ee                	mov    %ebp,%esi
  402a0e:	48 8d 7c 24 30       	lea    0x30(%rsp),%rdi
  402a13:	e8 cf f8 ff ff       	callq  4022e7 <rio_readinitb>
  402a18:	ba 00 20 00 00       	mov    $0x2000,%edx
  402a1d:	48 8d b4 24 40 20 00 	lea    0x2040(%rsp),%rsi
  402a24:	00 
  402a25:	48 8d 7c 24 30       	lea    0x30(%rsp),%rdi
  402a2a:	e8 df f9 ff ff       	callq  40240e <rio_readlineb>
  402a2f:	48 85 c0             	test   %rax,%rax
  402a32:	7f 7f                	jg     402ab3 <submitr+0x4ee>
  402a34:	48 b8 45 72 72 6f 72 	movabs $0x43203a726f727245,%rax
  402a3b:	3a 20 43 
  402a3e:	48 89 03             	mov    %rax,(%rbx)
  402a41:	48 b8 6c 69 65 6e 74 	movabs $0x6e7520746e65696c,%rax
  402a48:	20 75 6e 
  402a4b:	48 89 43 08          	mov    %rax,0x8(%rbx)
  402a4f:	48 b8 61 62 6c 65 20 	movabs $0x206f7420656c6261,%rax
  402a56:	74 6f 20 
  402a59:	48 89 43 10          	mov    %rax,0x10(%rbx)
  402a5d:	48 b8 72 65 61 64 20 	movabs $0x7269662064616572,%rax
  402a64:	66 69 72 
  402a67:	48 89 43 18          	mov    %rax,0x18(%rbx)
  402a6b:	48 b8 73 74 20 68 65 	movabs $0x6564616568207473,%rax
  402a72:	61 64 65 
  402a75:	48 89 43 20          	mov    %rax,0x20(%rbx)
  402a79:	48 b8 72 20 66 72 6f 	movabs $0x41206d6f72662072,%rax
  402a80:	6d 20 41 
  402a83:	48 89 43 28          	mov    %rax,0x28(%rbx)
  402a87:	48 b8 75 74 6f 6c 61 	movabs $0x732062616c6f7475,%rax
  402a8e:	62 20 73 
  402a91:	48 89 43 30          	mov    %rax,0x30(%rbx)
  402a95:	c7 43 38 65 72 76 65 	movl   $0x65767265,0x38(%rbx)
  402a9c:	66 c7 43 3c 72 00    	movw   $0x72,0x3c(%rbx)
  402aa2:	89 ef                	mov    %ebp,%edi
  402aa4:	e8 a7 e2 ff ff       	callq  400d50 <close@plt>
  402aa9:	b8 ff ff ff ff       	mov    $0xffffffff,%eax
  402aae:	e9 73 02 00 00       	jmpq   402d26 <submitr+0x761>
  402ab3:	4c 8d 84 24 40 80 00 	lea    0x8040(%rsp),%r8
  402aba:	00 
  402abb:	48 8d 4c 24 1c       	lea    0x1c(%rsp),%rcx
  402ac0:	48 8d 94 24 40 60 00 	lea    0x6040(%rsp),%rdx
  402ac7:	00 
  402ac8:	be 3f 39 40 00       	mov    $0x40393f,%esi
  402acd:	48 8d bc 24 40 20 00 	lea    0x2040(%rsp),%rdi
  402ad4:	00 
  402ad5:	b8 00 00 00 00       	mov    $0x0,%eax
  402ada:	e8 21 e3 ff ff       	callq  400e00 <__isoc99_sscanf@plt>
  402adf:	e9 92 00 00 00       	jmpq   402b76 <submitr+0x5b1>
  402ae4:	ba 00 20 00 00       	mov    $0x2000,%edx
  402ae9:	48 8d b4 24 40 20 00 	lea    0x2040(%rsp),%rsi
  402af0:	00 
  402af1:	48 8d 7c 24 30       	lea    0x30(%rsp),%rdi
  402af6:	e8 13 f9 ff ff       	callq  40240e <rio_readlineb>
  402afb:	48 85 c0             	test   %rax,%rax
  402afe:	7f 76                	jg     402b76 <submitr+0x5b1>
  402b00:	48 b8 45 72 72 6f 72 	movabs $0x43203a726f727245,%rax
  402b07:	3a 20 43 
  402b0a:	48 89 03             	mov    %rax,(%rbx)
  402b0d:	48 b8 6c 69 65 6e 74 	movabs $0x6e7520746e65696c,%rax
  402b14:	20 75 6e 
  402b17:	48 89 43 08          	mov    %rax,0x8(%rbx)
  402b1b:	48 b8 61 62 6c 65 20 	movabs $0x206f7420656c6261,%rax
  402b22:	74 6f 20 
  402b25:	48 89 43 10          	mov    %rax,0x10(%rbx)
  402b29:	48 b8 72 65 61 64 20 	movabs $0x6165682064616572,%rax
  402b30:	68 65 61 
  402b33:	48 89 43 18          	mov    %rax,0x18(%rbx)
  402b37:	48 b8 64 65 72 73 20 	movabs $0x6f72662073726564,%rax
  402b3e:	66 72 6f 
  402b41:	48 89 43 20          	mov    %rax,0x20(%rbx)
  402b45:	48 b8 6d 20 41 75 74 	movabs $0x616c6f747541206d,%rax
  402b4c:	6f 6c 61 
  402b4f:	48 89 43 28          	mov    %rax,0x28(%rbx)
  402b53:	48 b8 62 20 73 65 72 	movabs $0x7265767265732062,%rax
  402b5a:	76 65 72 
  402b5d:	48 89 43 30          	mov    %rax,0x30(%rbx)
  402b61:	c6 43 38 00          	movb   $0x0,0x38(%rbx)
  402b65:	89 ef                	mov    %ebp,%edi
  402b67:	e8 e4 e1 ff ff       	callq  400d50 <close@plt>
  402b6c:	b8 ff ff ff ff       	mov    $0xffffffff,%eax
  402b71:	e9 b0 01 00 00       	jmpq   402d26 <submitr+0x761>
  402b76:	0f b6 94 24 40 20 00 	movzbl 0x2040(%rsp),%edx
  402b7d:	00 
  402b7e:	b8 0d 00 00 00       	mov    $0xd,%eax
  402b83:	29 d0                	sub    %edx,%eax
  402b85:	75 1b                	jne    402ba2 <submitr+0x5dd>
  402b87:	0f b6 94 24 41 20 00 	movzbl 0x2041(%rsp),%edx
  402b8e:	00 
  402b8f:	b8 0a 00 00 00       	mov    $0xa,%eax
  402b94:	29 d0                	sub    %edx,%eax
  402b96:	75 0a                	jne    402ba2 <submitr+0x5dd>
  402b98:	0f b6 84 24 42 20 00 	movzbl 0x2042(%rsp),%eax
  402b9f:	00 
  402ba0:	f7 d8                	neg    %eax
  402ba2:	85 c0                	test   %eax,%eax
  402ba4:	0f 85 3a ff ff ff    	jne    402ae4 <submitr+0x51f>
  402baa:	ba 00 20 00 00       	mov    $0x2000,%edx
  402baf:	48 8d b4 24 40 20 00 	lea    0x2040(%rsp),%rsi
  402bb6:	00 
  402bb7:	48 8d 7c 24 30       	lea    0x30(%rsp),%rdi
  402bbc:	e8 4d f8 ff ff       	callq  40240e <rio_readlineb>
  402bc1:	48 85 c0             	test   %rax,%rax
  402bc4:	0f 8f 80 00 00 00    	jg     402c4a <submitr+0x685>
  402bca:	48 b8 45 72 72 6f 72 	movabs $0x43203a726f727245,%rax
  402bd1:	3a 20 43 
  402bd4:	48 89 03             	mov    %rax,(%rbx)
  402bd7:	48 b8 6c 69 65 6e 74 	movabs $0x6e7520746e65696c,%rax
  402bde:	20 75 6e 
  402be1:	48 89 43 08          	mov    %rax,0x8(%rbx)
  402be5:	48 b8 61 62 6c 65 20 	movabs $0x206f7420656c6261,%rax
  402bec:	74 6f 20 
  402bef:	48 89 43 10          	mov    %rax,0x10(%rbx)
  402bf3:	48 b8 72 65 61 64 20 	movabs $0x6174732064616572,%rax
  402bfa:	73 74 61 
  402bfd:	48 89 43 18          	mov    %rax,0x18(%rbx)
  402c01:	48 b8 74 75 73 20 6d 	movabs $0x7373656d20737574,%rax
  402c08:	65 73 73 
  402c0b:	48 89 43 20          	mov    %rax,0x20(%rbx)
  402c0f:	48 b8 61 67 65 20 66 	movabs $0x6d6f726620656761,%rax
  402c16:	72 6f 6d 
  402c19:	48 89 43 28          	mov    %rax,0x28(%rbx)
  402c1d:	48 b8 20 41 75 74 6f 	movabs $0x62616c6f74754120,%rax
  402c24:	6c 61 62 
  402c27:	48 89 43 30          	mov    %rax,0x30(%rbx)
  402c2b:	48 b8 20 73 65 72 76 	movabs $0x72657672657320,%rax
  402c32:	65 72 00 
  402c35:	48 89 43 38          	mov    %rax,0x38(%rbx)
  402c39:	89 ef                	mov    %ebp,%edi
  402c3b:	e8 10 e1 ff ff       	callq  400d50 <close@plt>
  402c40:	b8 ff ff ff ff       	mov    $0xffffffff,%eax
  402c45:	e9 dc 00 00 00       	jmpq   402d26 <submitr+0x761>
  402c4a:	44 8b 44 24 1c       	mov    0x1c(%rsp),%r8d
  402c4f:	41 81 f8 c8 00 00 00 	cmp    $0xc8,%r8d
  402c56:	74 37                	je     402c8f <submitr+0x6ca>
  402c58:	4c 8d 8c 24 40 80 00 	lea    0x8040(%rsp),%r9
  402c5f:	00 
  402c60:	b9 08 39 40 00       	mov    $0x403908,%ecx
  402c65:	48 c7 c2 ff ff ff ff 	mov    $0xffffffffffffffff,%rdx
  402c6c:	be 01 00 00 00       	mov    $0x1,%esi
  402c71:	48 89 df             	mov    %rbx,%rdi
  402c74:	b8 00 00 00 00       	mov    $0x0,%eax
  402c79:	e8 22 e2 ff ff       	callq  400ea0 <__sprintf_chk@plt>
  402c7e:	89 ef                	mov    %ebp,%edi
  402c80:	e8 cb e0 ff ff       	callq  400d50 <close@plt>
  402c85:	b8 ff ff ff ff       	mov    $0xffffffff,%eax
  402c8a:	e9 97 00 00 00       	jmpq   402d26 <submitr+0x761>
  402c8f:	48 8d b4 24 40 20 00 	lea    0x2040(%rsp),%rsi
  402c96:	00 
  402c97:	48 89 df             	mov    %rbx,%rdi
  402c9a:	e8 41 e0 ff ff       	callq  400ce0 <strcpy@plt>
  402c9f:	89 ef                	mov    %ebp,%edi
  402ca1:	e8 aa e0 ff ff       	callq  400d50 <close@plt>
  402ca6:	0f b6 03             	movzbl (%rbx),%eax
  402ca9:	ba 4f 00 00 00       	mov    $0x4f,%edx
  402cae:	29 c2                	sub    %eax,%edx
  402cb0:	75 22                	jne    402cd4 <submitr+0x70f>
  402cb2:	0f b6 4b 01          	movzbl 0x1(%rbx),%ecx
  402cb6:	b8 4b 00 00 00       	mov    $0x4b,%eax
  402cbb:	29 c8                	sub    %ecx,%eax
  402cbd:	75 17                	jne    402cd6 <submitr+0x711>
  402cbf:	0f b6 4b 02          	movzbl 0x2(%rbx),%ecx
  402cc3:	b8 0a 00 00 00       	mov    $0xa,%eax
  402cc8:	29 c8                	sub    %ecx,%eax
  402cca:	75 0a                	jne    402cd6 <submitr+0x711>
  402ccc:	0f b6 43 03          	movzbl 0x3(%rbx),%eax
  402cd0:	f7 d8                	neg    %eax
  402cd2:	eb 02                	jmp    402cd6 <submitr+0x711>
  402cd4:	89 d0                	mov    %edx,%eax
  402cd6:	85 c0                	test   %eax,%eax
  402cd8:	74 40                	je     402d1a <submitr+0x755>
  402cda:	bf 50 39 40 00       	mov    $0x403950,%edi
  402cdf:	b9 05 00 00 00       	mov    $0x5,%ecx
  402ce4:	48 89 de             	mov    %rbx,%rsi
  402ce7:	f3 a6                	repz cmpsb %es:(%rdi),%ds:(%rsi)
  402ce9:	0f 97 c0             	seta   %al
  402cec:	0f 92 c1             	setb   %cl
  402cef:	29 c8                	sub    %ecx,%eax
  402cf1:	0f be c0             	movsbl %al,%eax
  402cf4:	85 c0                	test   %eax,%eax
  402cf6:	74 2e                	je     402d26 <submitr+0x761>
  402cf8:	85 d2                	test   %edx,%edx
  402cfa:	75 13                	jne    402d0f <submitr+0x74a>
  402cfc:	0f b6 43 01          	movzbl 0x1(%rbx),%eax
  402d00:	ba 4b 00 00 00       	mov    $0x4b,%edx
  402d05:	29 c2                	sub    %eax,%edx
  402d07:	75 06                	jne    402d0f <submitr+0x74a>
  402d09:	0f b6 53 02          	movzbl 0x2(%rbx),%edx
  402d0d:	f7 da                	neg    %edx
  402d0f:	85 d2                	test   %edx,%edx
  402d11:	75 0e                	jne    402d21 <submitr+0x75c>
  402d13:	b8 00 00 00 00       	mov    $0x0,%eax
  402d18:	eb 0c                	jmp    402d26 <submitr+0x761>
  402d1a:	b8 00 00 00 00       	mov    $0x0,%eax
  402d1f:	eb 05                	jmp    402d26 <submitr+0x761>
  402d21:	b8 ff ff ff ff       	mov    $0xffffffff,%eax
  402d26:	48 8b 9c 24 48 a0 00 	mov    0xa048(%rsp),%rbx
  402d2d:	00 
  402d2e:	64 48 33 1c 25 28 00 	xor    %fs:0x28,%rbx
  402d35:	00 00 
  402d37:	74 05                	je     402d3e <submitr+0x779>
  402d39:	e8 d2 df ff ff       	callq  400d10 <__stack_chk_fail@plt>
  402d3e:	48 81 c4 58 a0 00 00 	add    $0xa058,%rsp
  402d45:	5b                   	pop    %rbx
  402d46:	5d                   	pop    %rbp
  402d47:	41 5c                	pop    %r12
  402d49:	41 5d                	pop    %r13
  402d4b:	41 5e                	pop    %r14
  402d4d:	41 5f                	pop    %r15
  402d4f:	c3                   	retq   

0000000000402d50 <init_timeout>:
  402d50:	85 ff                	test   %edi,%edi
  402d52:	74 23                	je     402d77 <init_timeout+0x27>
  402d54:	53                   	push   %rbx
  402d55:	89 fb                	mov    %edi,%ebx
  402d57:	85 ff                	test   %edi,%edi
  402d59:	79 05                	jns    402d60 <init_timeout+0x10>
  402d5b:	bb 00 00 00 00       	mov    $0x0,%ebx
  402d60:	be f9 22 40 00       	mov    $0x4022f9,%esi
  402d65:	bf 0e 00 00 00       	mov    $0xe,%edi
  402d6a:	e8 11 e0 ff ff       	callq  400d80 <signal@plt>
  402d6f:	89 df                	mov    %ebx,%edi
  402d71:	e8 ca df ff ff       	callq  400d40 <alarm@plt>
  402d76:	5b                   	pop    %rbx
  402d77:	f3 c3                	repz retq 

0000000000402d79 <init_driver>:
  402d79:	55                   	push   %rbp
  402d7a:	53                   	push   %rbx
  402d7b:	48 83 ec 28          	sub    $0x28,%rsp
  402d7f:	48 89 fd             	mov    %rdi,%rbp
  402d82:	64 48 8b 04 25 28 00 	mov    %fs:0x28,%rax
  402d89:	00 00 
  402d8b:	48 89 44 24 18       	mov    %rax,0x18(%rsp)
  402d90:	31 c0                	xor    %eax,%eax
  402d92:	be 01 00 00 00       	mov    $0x1,%esi
  402d97:	bf 0d 00 00 00       	mov    $0xd,%edi
  402d9c:	e8 df df ff ff       	callq  400d80 <signal@plt>
  402da1:	be 01 00 00 00       	mov    $0x1,%esi
  402da6:	bf 1d 00 00 00       	mov    $0x1d,%edi
  402dab:	e8 d0 df ff ff       	callq  400d80 <signal@plt>
  402db0:	be 01 00 00 00       	mov    $0x1,%esi
  402db5:	bf 1d 00 00 00       	mov    $0x1d,%edi
  402dba:	e8 c1 df ff ff       	callq  400d80 <signal@plt>
  402dbf:	ba 00 00 00 00       	mov    $0x0,%edx
  402dc4:	be 01 00 00 00       	mov    $0x1,%esi
  402dc9:	bf 02 00 00 00       	mov    $0x2,%edi
  402dce:	e8 dd e0 ff ff       	callq  400eb0 <socket@plt>
  402dd3:	85 c0                	test   %eax,%eax
  402dd5:	79 4f                	jns    402e26 <init_driver+0xad>
  402dd7:	48 b8 45 72 72 6f 72 	movabs $0x43203a726f727245,%rax
  402dde:	3a 20 43 
  402de1:	48 89 45 00          	mov    %rax,0x0(%rbp)
  402de5:	48 b8 6c 69 65 6e 74 	movabs $0x6e7520746e65696c,%rax
  402dec:	20 75 6e 
  402def:	48 89 45 08          	mov    %rax,0x8(%rbp)
  402df3:	48 b8 61 62 6c 65 20 	movabs $0x206f7420656c6261,%rax
  402dfa:	74 6f 20 
  402dfd:	48 89 45 10          	mov    %rax,0x10(%rbp)
  402e01:	48 b8 63 72 65 61 74 	movabs $0x7320657461657263,%rax
  402e08:	65 20 73 
  402e0b:	48 89 45 18          	mov    %rax,0x18(%rbp)
  402e0f:	c7 45 20 6f 63 6b 65 	movl   $0x656b636f,0x20(%rbp)
  402e16:	66 c7 45 24 74 00    	movw   $0x74,0x24(%rbp)
  402e1c:	b8 ff ff ff ff       	mov    $0xffffffff,%eax
  402e21:	e9 2a 01 00 00       	jmpq   402f50 <init_driver+0x1d7>
  402e26:	89 c3                	mov    %eax,%ebx
  402e28:	bf 75 34 40 00       	mov    $0x403475,%edi
  402e2d:	e8 5e df ff ff       	callq  400d90 <gethostbyname@plt>
  402e32:	48 85 c0             	test   %rax,%rax
  402e35:	75 68                	jne    402e9f <init_driver+0x126>
  402e37:	48 b8 45 72 72 6f 72 	movabs $0x44203a726f727245,%rax
  402e3e:	3a 20 44 
  402e41:	48 89 45 00          	mov    %rax,0x0(%rbp)
  402e45:	48 b8 4e 53 20 69 73 	movabs $0x6e7520736920534e,%rax
  402e4c:	20 75 6e 
  402e4f:	48 89 45 08          	mov    %rax,0x8(%rbp)
  402e53:	48 b8 61 62 6c 65 20 	movabs $0x206f7420656c6261,%rax
  402e5a:	74 6f 20 
  402e5d:	48 89 45 10          	mov    %rax,0x10(%rbp)
  402e61:	48 b8 72 65 73 6f 6c 	movabs $0x2065766c6f736572,%rax
  402e68:	76 65 20 
  402e6b:	48 89 45 18          	mov    %rax,0x18(%rbp)
  402e6f:	48 b8 73 65 72 76 65 	movabs $0x6120726576726573,%rax
  402e76:	72 20 61 
  402e79:	48 89 45 20          	mov    %rax,0x20(%rbp)
  402e7d:	c7 45 28 64 64 72 65 	movl   $0x65726464,0x28(%rbp)
  402e84:	66 c7 45 2c 73 73    	movw   $0x7373,0x2c(%rbp)
  402e8a:	c6 45 2e 00          	movb   $0x0,0x2e(%rbp)
  402e8e:	89 df                	mov    %ebx,%edi
  402e90:	e8 bb de ff ff       	callq  400d50 <close@plt>
  402e95:	b8 ff ff ff ff       	mov    $0xffffffff,%eax
  402e9a:	e9 b1 00 00 00       	jmpq   402f50 <init_driver+0x1d7>
  402e9f:	48 c7 04 24 00 00 00 	movq   $0x0,(%rsp)
  402ea6:	00 
  402ea7:	48 c7 44 24 08 00 00 	movq   $0x0,0x8(%rsp)
  402eae:	00 00 
  402eb0:	66 c7 04 24 02 00    	movw   $0x2,(%rsp)
  402eb6:	48 63 50 14          	movslq 0x14(%rax),%rdx
  402eba:	48 8b 40 18          	mov    0x18(%rax),%rax
  402ebe:	48 8b 30             	mov    (%rax),%rsi
  402ec1:	48 8d 7c 24 04       	lea    0x4(%rsp),%rdi
  402ec6:	b9 0c 00 00 00       	mov    $0xc,%ecx
  402ecb:	e8 d0 de ff ff       	callq  400da0 <__memmove_chk@plt>
  402ed0:	66 c7 44 24 02 00 50 	movw   $0x5000,0x2(%rsp)
  402ed7:	ba 10 00 00 00       	mov    $0x10,%edx
  402edc:	48 89 e6             	mov    %rsp,%rsi
  402edf:	89 df                	mov    %ebx,%edi
  402ee1:	e8 9a df ff ff       	callq  400e80 <connect@plt>
  402ee6:	85 c0                	test   %eax,%eax
  402ee8:	79 50                	jns    402f3a <init_driver+0x1c1>
  402eea:	48 b8 45 72 72 6f 72 	movabs $0x55203a726f727245,%rax
  402ef1:	3a 20 55 
  402ef4:	48 89 45 00          	mov    %rax,0x0(%rbp)
  402ef8:	48 b8 6e 61 62 6c 65 	movabs $0x6f7420656c62616e,%rax
  402eff:	20 74 6f 
  402f02:	48 89 45 08          	mov    %rax,0x8(%rbp)
  402f06:	48 b8 20 63 6f 6e 6e 	movabs $0x7463656e6e6f6320,%rax
  402f0d:	65 63 74 
  402f10:	48 89 45 10          	mov    %rax,0x10(%rbp)
  402f14:	48 b8 20 74 6f 20 73 	movabs $0x76726573206f7420,%rax
  402f1b:	65 72 76 
  402f1e:	48 89 45 18          	mov    %rax,0x18(%rbp)
  402f22:	66 c7 45 20 65 72    	movw   $0x7265,0x20(%rbp)
  402f28:	c6 45 22 00          	movb   $0x0,0x22(%rbp)
  402f2c:	89 df                	mov    %ebx,%edi
  402f2e:	e8 1d de ff ff       	callq  400d50 <close@plt>
  402f33:	b8 ff ff ff ff       	mov    $0xffffffff,%eax
  402f38:	eb 16                	jmp    402f50 <init_driver+0x1d7>
  402f3a:	89 df                	mov    %ebx,%edi
  402f3c:	e8 0f de ff ff       	callq  400d50 <close@plt>
  402f41:	66 c7 45 00 4f 4b    	movw   $0x4b4f,0x0(%rbp)
  402f47:	c6 45 02 00          	movb   $0x0,0x2(%rbp)
  402f4b:	b8 00 00 00 00       	mov    $0x0,%eax
  402f50:	48 8b 4c 24 18       	mov    0x18(%rsp),%rcx
  402f55:	64 48 33 0c 25 28 00 	xor    %fs:0x28,%rcx
  402f5c:	00 00 
  402f5e:	74 05                	je     402f65 <init_driver+0x1ec>
  402f60:	e8 ab dd ff ff       	callq  400d10 <__stack_chk_fail@plt>
  402f65:	48 83 c4 28          	add    $0x28,%rsp
  402f69:	5b                   	pop    %rbx
  402f6a:	5d                   	pop    %rbp
  402f6b:	c3                   	retq   

0000000000402f6c <driver_post>:
  402f6c:	53                   	push   %rbx
  402f6d:	4c 89 cb             	mov    %r9,%rbx
  402f70:	45 85 c0             	test   %r8d,%r8d
  402f73:	74 27                	je     402f9c <driver_post+0x30>
  402f75:	48 89 ca             	mov    %rcx,%rdx
  402f78:	be 55 39 40 00       	mov    $0x403955,%esi
  402f7d:	bf 01 00 00 00       	mov    $0x1,%edi
  402f82:	b8 00 00 00 00       	mov    $0x0,%eax
  402f87:	e8 94 de ff ff       	callq  400e20 <__printf_chk@plt>
  402f8c:	66 c7 03 4f 4b       	movw   $0x4b4f,(%rbx)
  402f91:	c6 43 02 00          	movb   $0x0,0x2(%rbx)
  402f95:	b8 00 00 00 00       	mov    $0x0,%eax
  402f9a:	eb 3f                	jmp    402fdb <driver_post+0x6f>
  402f9c:	48 85 ff             	test   %rdi,%rdi
  402f9f:	74 2c                	je     402fcd <driver_post+0x61>
  402fa1:	80 3f 00             	cmpb   $0x0,(%rdi)
  402fa4:	74 27                	je     402fcd <driver_post+0x61>
  402fa6:	48 83 ec 08          	sub    $0x8,%rsp
  402faa:	41 51                	push   %r9
  402fac:	49 89 c9             	mov    %rcx,%r9
  402faf:	49 89 d0             	mov    %rdx,%r8
  402fb2:	48 89 f9             	mov    %rdi,%rcx
  402fb5:	48 89 f2             	mov    %rsi,%rdx
  402fb8:	be 50 00 00 00       	mov    $0x50,%esi
  402fbd:	bf 75 34 40 00       	mov    $0x403475,%edi
  402fc2:	e8 fe f5 ff ff       	callq  4025c5 <submitr>
  402fc7:	48 83 c4 10          	add    $0x10,%rsp
  402fcb:	eb 0e                	jmp    402fdb <driver_post+0x6f>
  402fcd:	66 c7 03 4f 4b       	movw   $0x4b4f,(%rbx)
  402fd2:	c6 43 02 00          	movb   $0x0,0x2(%rbx)
  402fd6:	b8 00 00 00 00       	mov    $0x0,%eax
  402fdb:	5b                   	pop    %rbx
  402fdc:	c3                   	retq   

0000000000402fdd <check>:
  402fdd:	89 f8                	mov    %edi,%eax
  402fdf:	c1 e8 1c             	shr    $0x1c,%eax
  402fe2:	85 c0                	test   %eax,%eax
  402fe4:	74 1d                	je     403003 <check+0x26>
  402fe6:	b9 00 00 00 00       	mov    $0x0,%ecx
  402feb:	eb 0b                	jmp    402ff8 <check+0x1b>
  402fed:	89 f8                	mov    %edi,%eax
  402fef:	d3 e8                	shr    %cl,%eax
  402ff1:	3c 0a                	cmp    $0xa,%al
  402ff3:	74 14                	je     403009 <check+0x2c>
  402ff5:	83 c1 08             	add    $0x8,%ecx
  402ff8:	83 f9 1f             	cmp    $0x1f,%ecx
  402ffb:	7e f0                	jle    402fed <check+0x10>
  402ffd:	b8 01 00 00 00       	mov    $0x1,%eax
  403002:	c3                   	retq   
  403003:	b8 00 00 00 00       	mov    $0x0,%eax
  403008:	c3                   	retq   
  403009:	b8 00 00 00 00       	mov    $0x0,%eax
  40300e:	c3                   	retq   

000000000040300f <gencookie>:
  40300f:	53                   	push   %rbx
  403010:	83 c7 01             	add    $0x1,%edi
  403013:	e8 a8 dc ff ff       	callq  400cc0 <srandom@plt>
  403018:	e8 c3 dd ff ff       	callq  400de0 <random@plt>
  40301d:	89 c3                	mov    %eax,%ebx
  40301f:	89 c7                	mov    %eax,%edi
  403021:	e8 b7 ff ff ff       	callq  402fdd <check>
  403026:	85 c0                	test   %eax,%eax
  403028:	74 ee                	je     403018 <gencookie+0x9>
  40302a:	89 d8                	mov    %ebx,%eax
  40302c:	5b                   	pop    %rbx
  40302d:	c3                   	retq   
  40302e:	66 90                	xchg   %ax,%ax

0000000000403030 <__libc_csu_init>:
  403030:	41 57                	push   %r15
  403032:	41 56                	push   %r14
  403034:	41 89 ff             	mov    %edi,%r15d
  403037:	41 55                	push   %r13
  403039:	41 54                	push   %r12
  40303b:	4c 8d 25 be 1d 20 00 	lea    0x201dbe(%rip),%r12        # 604e00 <__frame_dummy_init_array_entry>
  403042:	55                   	push   %rbp
  403043:	48 8d 2d be 1d 20 00 	lea    0x201dbe(%rip),%rbp        # 604e08 <__init_array_end>
  40304a:	53                   	push   %rbx
  40304b:	49 89 f6             	mov    %rsi,%r14
  40304e:	49 89 d5             	mov    %rdx,%r13
  403051:	4c 29 e5             	sub    %r12,%rbp
  403054:	48 83 ec 08          	sub    $0x8,%rsp
  403058:	48 c1 fd 03          	sar    $0x3,%rbp
  40305c:	e8 07 dc ff ff       	callq  400c68 <_init>
  403061:	48 85 ed             	test   %rbp,%rbp
  403064:	74 20                	je     403086 <__libc_csu_init+0x56>
  403066:	31 db                	xor    %ebx,%ebx
  403068:	0f 1f 84 00 00 00 00 	nopl   0x0(%rax,%rax,1)
  40306f:	00 
  403070:	4c 89 ea             	mov    %r13,%rdx
  403073:	4c 89 f6             	mov    %r14,%rsi
  403076:	44 89 ff             	mov    %r15d,%edi
  403079:	41 ff 14 dc          	callq  *(%r12,%rbx,8)
  40307d:	48 83 c3 01          	add    $0x1,%rbx
  403081:	48 39 eb             	cmp    %rbp,%rbx
  403084:	75 ea                	jne    403070 <__libc_csu_init+0x40>
  403086:	48 83 c4 08          	add    $0x8,%rsp
  40308a:	5b                   	pop    %rbx
  40308b:	5d                   	pop    %rbp
  40308c:	41 5c                	pop    %r12
  40308e:	41 5d                	pop    %r13
  403090:	41 5e                	pop    %r14
  403092:	41 5f                	pop    %r15
  403094:	c3                   	retq   
  403095:	90                   	nop
  403096:	66 2e 0f 1f 84 00 00 	nopw   %cs:0x0(%rax,%rax,1)
  40309d:	00 00 00 

00000000004030a0 <__libc_csu_fini>:
  4030a0:	f3 c3                	repz retq 

Disassembly of section .fini:

00000000004030a4 <_fini>:
  4030a4:	48 83 ec 08          	sub    $0x8,%rsp
  4030a8:	48 83 c4 08          	add    $0x8,%rsp
  4030ac:	c3                   	retq   
